ARM GAS  C:\Users\madmax\AppData\Local\Temp\ccD50Og2.s 			page 1


   1              		.cpu cortex-m3
   2              		.eabi_attribute 20, 1
   3              		.eabi_attribute 21, 1
   4              		.eabi_attribute 23, 3
   5              		.eabi_attribute 24, 1
   6              		.eabi_attribute 25, 1
   7              		.eabi_attribute 26, 1
   8              		.eabi_attribute 30, 1
   9              		.eabi_attribute 34, 1
  10              		.eabi_attribute 18, 4
  11              		.file	"i2cSoft.c"
  12              		.text
  13              	.Ltext0:
  14              		.cfi_sections	.debug_frame
  15              		.section	.text.i2cSoft_Delay,"ax",%progbits
  16              		.align	1
  17              		.arch armv7-m
  18              		.syntax unified
  19              		.thumb
  20              		.thumb_func
  21              		.fpu softvfp
  23              	i2cSoft_Delay:
  24              	.LFB65:
  25              		.file 1 "Drivers/SoftI2C/Src/i2cSoft.c"
   1:Drivers/SoftI2C/Src/i2cSoft.c **** /*
   2:Drivers/SoftI2C/Src/i2cSoft.c ****  * author:	–ï–ª–∏—Å–µ–π –†–∞–≤–Ω—é—à–∫–∏–Ω
   3:Drivers/SoftI2C/Src/i2cSoft.c ****  * date:	08.04.2014	19:00:00
   4:Drivers/SoftI2C/Src/i2cSoft.c ****  * file:	i2cSoft.c
   5:Drivers/SoftI2C/Src/i2cSoft.c ****  * –°–æ—Ñ—Ç–æ–≤–∞—è —Ä–µ–∞–ª–∏–∑–∞—Ü–∏—è I2C
   6:Drivers/SoftI2C/Src/i2cSoft.c ****  */
   7:Drivers/SoftI2C/Src/i2cSoft.c **** 
   8:Drivers/SoftI2C/Src/i2cSoft.c **** #include "i2cSoft.h"
   9:Drivers/SoftI2C/Src/i2cSoft.c **** //#include "stm32f1xx.h"
  10:Drivers/SoftI2C/Src/i2cSoft.c **** #include <stdbool.h>
  11:Drivers/SoftI2C/Src/i2cSoft.c **** #include <stdint.h>
  12:Drivers/SoftI2C/Src/i2cSoft.c **** #include "bno055.h"
  13:Drivers/SoftI2C/Src/i2cSoft.c **** 
  14:Drivers/SoftI2C/Src/i2cSoft.c **** //--------------------–ü—Ä–æ—Ç–æ—Ç–∏–ø—ã –ª–æ–∫–∞–ª—å–Ω—ã—Ö —Ñ—É–Ω–∫—Ü–∏–π-------------------------
  15:Drivers/SoftI2C/Src/i2cSoft.c **** static void i2cSoft_Delay ();
  16:Drivers/SoftI2C/Src/i2cSoft.c **** static bool i2cSoft_Start ();
  17:Drivers/SoftI2C/Src/i2cSoft.c **** static void i2cSoft_Stop ();
  18:Drivers/SoftI2C/Src/i2cSoft.c **** static void i2cSoft_Ack ();
  19:Drivers/SoftI2C/Src/i2cSoft.c **** static void i2cSoft_NoAck ();
  20:Drivers/SoftI2C/Src/i2cSoft.c **** static bool i2cSoft_WaitAck ();
  21:Drivers/SoftI2C/Src/i2cSoft.c **** static void SCLhigh ();
  22:Drivers/SoftI2C/Src/i2cSoft.c **** //static void SCLlow ();
  23:Drivers/SoftI2C/Src/i2cSoft.c **** //static void i2cSoft_SCLH ();
  24:Drivers/SoftI2C/Src/i2cSoft.c **** static void i2cSoft_PutByte ( uint8_t data );
  25:Drivers/SoftI2C/Src/i2cSoft.c **** static uint8_t i2cSoft_GetByte ();
  26:Drivers/SoftI2C/Src/i2cSoft.c **** 
  27:Drivers/SoftI2C/Src/i2cSoft.c **** //---------------------–ì–ª–æ–±–∞–ª—å–Ω—ã–µ —Ñ—É–Ω–∫—Ü–∏–∏--------------------------------------
  28:Drivers/SoftI2C/Src/i2cSoft.c **** 
  29:Drivers/SoftI2C/Src/i2cSoft.c **** /**
  30:Drivers/SoftI2C/Src/i2cSoft.c ****  *	@brief	–ò–Ω–∏—Ü–∏–∞–ª–∏–∑–∞—Ü–∏—è –º–æ–¥—É–ª—è i2c, –∞ –∏–º–µ–Ω–Ω–æ –ø–æ—Ä—Ç–æ–≤ –≤–≤–æ–¥–∞/–≤—ã
  31:Drivers/SoftI2C/Src/i2cSoft.c ****  *	@param	void
  32:Drivers/SoftI2C/Src/i2cSoft.c ****  *	@return	void
  33:Drivers/SoftI2C/Src/i2cSoft.c ****  */
ARM GAS  C:\Users\madmax\AppData\Local\Temp\ccD50Og2.s 			page 2


  34:Drivers/SoftI2C/Src/i2cSoft.c **** static void i2cSoft_Delay ()
  35:Drivers/SoftI2C/Src/i2cSoft.c **** {
  26              		.loc 1 35 1 view -0
  27              		.cfi_startproc
  28              		@ args = 0, pretend = 0, frame = 8
  29              		@ frame_needed = 0, uses_anonymous_args = 0
  30              		@ link register save eliminated.
  31 0000 82B0     		sub	sp, sp, #8
  32              	.LCFI0:
  33              		.cfi_def_cfa_offset 8
  36:Drivers/SoftI2C/Src/i2cSoft.c **** 	volatile uint16_t i = I2C_DELAY;
  34              		.loc 1 36 2 view .LVU1
  35              		.loc 1 36 20 is_stmt 0 view .LVU2
  36 0002 0123     		movs	r3, #1
  37 0004 ADF80630 		strh	r3, [sp, #6]	@ movhi
  37:Drivers/SoftI2C/Src/i2cSoft.c **** 
  38:Drivers/SoftI2C/Src/i2cSoft.c **** 	while ( i ) {
  38              		.loc 1 38 2 is_stmt 1 view .LVU3
  39              	.L2:
  40              		.loc 1 38 10 is_stmt 0 view .LVU4
  41 0008 BDF80630 		ldrh	r3, [sp, #6]
  42 000c 9BB2     		uxth	r3, r3
  43              		.loc 1 38 8 view .LVU5
  44 000e 33B1     		cbz	r3, .L5
  39:Drivers/SoftI2C/Src/i2cSoft.c **** 		i--;
  45              		.loc 1 39 3 is_stmt 1 view .LVU6
  46              		.loc 1 39 4 is_stmt 0 view .LVU7
  47 0010 BDF80630 		ldrh	r3, [sp, #6]
  48 0014 013B     		subs	r3, r3, #1
  49 0016 9BB2     		uxth	r3, r3
  50 0018 ADF80630 		strh	r3, [sp, #6]	@ movhi
  51 001c F4E7     		b	.L2
  52              	.L5:
  40:Drivers/SoftI2C/Src/i2cSoft.c **** 	}
  41:Drivers/SoftI2C/Src/i2cSoft.c **** }
  53              		.loc 1 41 1 view .LVU8
  54 001e 02B0     		add	sp, sp, #8
  55              	.LCFI1:
  56              		.cfi_def_cfa_offset 0
  57              		@ sp needed
  58 0020 7047     		bx	lr
  59              		.cfi_endproc
  60              	.LFE65:
  62              		.section	.text.i2cSoft_PutByte,"ax",%progbits
  63              		.align	1
  64              		.syntax unified
  65              		.thumb
  66              		.thumb_func
  67              		.fpu softvfp
  69              	i2cSoft_PutByte:
  70              	.LVL0:
  71              	.LFB89:
  42:Drivers/SoftI2C/Src/i2cSoft.c **** 
  43:Drivers/SoftI2C/Src/i2cSoft.c **** 
  44:Drivers/SoftI2C/Src/i2cSoft.c **** 
  45:Drivers/SoftI2C/Src/i2cSoft.c **** void i2cSoft_Init (void)
  46:Drivers/SoftI2C/Src/i2cSoft.c **** {
ARM GAS  C:\Users\madmax\AppData\Local\Temp\ccD50Og2.s 			page 3


  47:Drivers/SoftI2C/Src/i2cSoft.c **** 	SCLhigh();
  48:Drivers/SoftI2C/Src/i2cSoft.c **** 	SDAH;
  49:Drivers/SoftI2C/Src/i2cSoft.c **** 	 i2cSoft_Delay();
  50:Drivers/SoftI2C/Src/i2cSoft.c **** 
  51:Drivers/SoftI2C/Src/i2cSoft.c **** }
  52:Drivers/SoftI2C/Src/i2cSoft.c **** uint8_t i2cSoft_Read(uint8_t reg)
  53:Drivers/SoftI2C/Src/i2cSoft.c **** {
  54:Drivers/SoftI2C/Src/i2cSoft.c **** 	if ( !i2cSoft_Start() )
  55:Drivers/SoftI2C/Src/i2cSoft.c **** 		return I2C_RESULT_ERROR;
  56:Drivers/SoftI2C/Src/i2cSoft.c **** 
  57:Drivers/SoftI2C/Src/i2cSoft.c **** 	i2cSoft_PutByte( BNO055_ADDRESS_A << 1 );
  58:Drivers/SoftI2C/Src/i2cSoft.c **** 
  59:Drivers/SoftI2C/Src/i2cSoft.c **** 	if ( !i2cSoft_WaitAck() ) 
  60:Drivers/SoftI2C/Src/i2cSoft.c **** 	{
  61:Drivers/SoftI2C/Src/i2cSoft.c **** 		i2cSoft_Stop();
  62:Drivers/SoftI2C/Src/i2cSoft.c **** 		return I2C_RESULT_ERROR;
  63:Drivers/SoftI2C/Src/i2cSoft.c **** 	}
  64:Drivers/SoftI2C/Src/i2cSoft.c **** 	i2cSoft_PutByte( reg );
  65:Drivers/SoftI2C/Src/i2cSoft.c **** 	if ( !i2cSoft_WaitAck() ) 
  66:Drivers/SoftI2C/Src/i2cSoft.c **** 	{
  67:Drivers/SoftI2C/Src/i2cSoft.c **** 		i2cSoft_Stop();
  68:Drivers/SoftI2C/Src/i2cSoft.c **** 		return I2C_RESULT_ERROR;
  69:Drivers/SoftI2C/Src/i2cSoft.c **** 	}
  70:Drivers/SoftI2C/Src/i2cSoft.c **** 	i2cSoft_Start();
  71:Drivers/SoftI2C/Src/i2cSoft.c **** 	i2cSoft_PutByte( (BNO055_ADDRESS_A << 1) + 1 );
  72:Drivers/SoftI2C/Src/i2cSoft.c **** 		if ( !i2cSoft_WaitAck() ) 
  73:Drivers/SoftI2C/Src/i2cSoft.c **** 	{
  74:Drivers/SoftI2C/Src/i2cSoft.c **** 		i2cSoft_Stop();
  75:Drivers/SoftI2C/Src/i2cSoft.c **** 		return I2C_RESULT_ERROR;
  76:Drivers/SoftI2C/Src/i2cSoft.c **** 	}
  77:Drivers/SoftI2C/Src/i2cSoft.c **** //	
  78:Drivers/SoftI2C/Src/i2cSoft.c **** 	
  79:Drivers/SoftI2C/Src/i2cSoft.c **** 	uint8_t data = i2cSoft_GetByte();
  80:Drivers/SoftI2C/Src/i2cSoft.c **** 
  81:Drivers/SoftI2C/Src/i2cSoft.c **** 	i2cSoft_NoAck();
  82:Drivers/SoftI2C/Src/i2cSoft.c **** 	i2cSoft_Stop();
  83:Drivers/SoftI2C/Src/i2cSoft.c **** 	
  84:Drivers/SoftI2C/Src/i2cSoft.c **** 		return data;
  85:Drivers/SoftI2C/Src/i2cSoft.c **** }
  86:Drivers/SoftI2C/Src/i2cSoft.c **** 
  87:Drivers/SoftI2C/Src/i2cSoft.c **** int TC358870_i2c_Write(uint16_t reg, uint32_t val, int len)
  88:Drivers/SoftI2C/Src/i2cSoft.c **** {
  89:Drivers/SoftI2C/Src/i2cSoft.c **** 	uint8_t i2c_addr = TOSHIBA_I2C_ADDR << 1;
  90:Drivers/SoftI2C/Src/i2cSoft.c **** 	switch(len)
  91:Drivers/SoftI2C/Src/i2cSoft.c **** 	{
  92:Drivers/SoftI2C/Src/i2cSoft.c **** 		
  93:Drivers/SoftI2C/Src/i2cSoft.c **** 		
  94:Drivers/SoftI2C/Src/i2cSoft.c **** 		case 1:
  95:Drivers/SoftI2C/Src/i2cSoft.c **** 		i2cSoft_WriteByte ( i2c_addr,  reg, val & 0xFF );
  96:Drivers/SoftI2C/Src/i2cSoft.c **** 		break;
  97:Drivers/SoftI2C/Src/i2cSoft.c **** 
  98:Drivers/SoftI2C/Src/i2cSoft.c **** 		case 2:
  99:Drivers/SoftI2C/Src/i2cSoft.c **** 		i2cSoft_WriteShort ( i2c_addr,  reg, val & 0xFFFF );
 100:Drivers/SoftI2C/Src/i2cSoft.c **** 		break;
 101:Drivers/SoftI2C/Src/i2cSoft.c **** 
 102:Drivers/SoftI2C/Src/i2cSoft.c **** 		case 4:
 103:Drivers/SoftI2C/Src/i2cSoft.c **** 		i2cSoft_WriteLong ( i2c_addr,  reg, val );
ARM GAS  C:\Users\madmax\AppData\Local\Temp\ccD50Og2.s 			page 4


 104:Drivers/SoftI2C/Src/i2cSoft.c **** 		break;
 105:Drivers/SoftI2C/Src/i2cSoft.c **** 	}
 106:Drivers/SoftI2C/Src/i2cSoft.c **** 
 107:Drivers/SoftI2C/Src/i2cSoft.c **** 	return 1;
 108:Drivers/SoftI2C/Src/i2cSoft.c **** }
 109:Drivers/SoftI2C/Src/i2cSoft.c **** int TC358870_I2C_Write_BigIn(uint16_t reg, uint32_t val, int len)
 110:Drivers/SoftI2C/Src/i2cSoft.c **** {
 111:Drivers/SoftI2C/Src/i2cSoft.c **** 	//Convert big endian from OSVR sources to Li for stm32
 112:Drivers/SoftI2C/Src/i2cSoft.c **** 	uint32_t bi_len = 0;
 113:Drivers/SoftI2C/Src/i2cSoft.c **** 	uint8_t i2c_addr = TOSHIBA_I2C_ADDR << 1;
 114:Drivers/SoftI2C/Src/i2cSoft.c **** 	switch(len)
 115:Drivers/SoftI2C/Src/i2cSoft.c **** 	{
 116:Drivers/SoftI2C/Src/i2cSoft.c **** 		case 1:
 117:Drivers/SoftI2C/Src/i2cSoft.c **** 		i2cSoft_WriteByte ( i2c_addr,  reg, val & 0xFF );
 118:Drivers/SoftI2C/Src/i2cSoft.c **** 		break;
 119:Drivers/SoftI2C/Src/i2cSoft.c **** 
 120:Drivers/SoftI2C/Src/i2cSoft.c **** 		case 2:
 121:Drivers/SoftI2C/Src/i2cSoft.c **** 				 bi_len = ((val >> 8)&0xff) | // move byte 1 to byte 0
 122:Drivers/SoftI2C/Src/i2cSoft.c **** 				 		  ((val << 8)&0xff00); // move byte 0 to byte 1
 123:Drivers/SoftI2C/Src/i2cSoft.c **** 		i2cSoft_WriteShort ( i2c_addr,  reg, bi_len & 0xFFFF );
 124:Drivers/SoftI2C/Src/i2cSoft.c **** 		break;
 125:Drivers/SoftI2C/Src/i2cSoft.c **** 
 126:Drivers/SoftI2C/Src/i2cSoft.c **** 		case 4:
 127:Drivers/SoftI2C/Src/i2cSoft.c **** 				 bi_len = ((val>>24)&0xff) | // move byte 3 to byte 0
 128:Drivers/SoftI2C/Src/i2cSoft.c **** 				          ((val>>8)&0xff00) | // move byte 2 to byte 1
 129:Drivers/SoftI2C/Src/i2cSoft.c **** 						  ((val<<8)&0xff0000) | // move byte 1 to byte 2
 130:Drivers/SoftI2C/Src/i2cSoft.c **** 						  ((val<<24)&0xff000000); // byte 0 to byte 3
 131:Drivers/SoftI2C/Src/i2cSoft.c **** 		i2cSoft_WriteLong ( i2c_addr,  reg, bi_len );
 132:Drivers/SoftI2C/Src/i2cSoft.c **** 		break;
 133:Drivers/SoftI2C/Src/i2cSoft.c **** 	}
 134:Drivers/SoftI2C/Src/i2cSoft.c **** 
 135:Drivers/SoftI2C/Src/i2cSoft.c **** 	return 1;
 136:Drivers/SoftI2C/Src/i2cSoft.c **** }
 137:Drivers/SoftI2C/Src/i2cSoft.c **** uint8_t TC358870_i2c_Read(uint16_t addr)
 138:Drivers/SoftI2C/Src/i2cSoft.c **** {
 139:Drivers/SoftI2C/Src/i2cSoft.c **** 	if ( !i2cSoft_Start() )
 140:Drivers/SoftI2C/Src/i2cSoft.c **** 		return I2C_RESULT_ERROR;
 141:Drivers/SoftI2C/Src/i2cSoft.c **** 
 142:Drivers/SoftI2C/Src/i2cSoft.c **** 	i2cSoft_PutByte( TOSHIBA_I2C_ADDR << 1 );
 143:Drivers/SoftI2C/Src/i2cSoft.c **** 	if ( !i2cSoft_WaitAck() ) 
 144:Drivers/SoftI2C/Src/i2cSoft.c **** 	{
 145:Drivers/SoftI2C/Src/i2cSoft.c **** 		i2cSoft_Stop();
 146:Drivers/SoftI2C/Src/i2cSoft.c **** 		return I2C_RESULT_ERROR;
 147:Drivers/SoftI2C/Src/i2cSoft.c **** 	}
 148:Drivers/SoftI2C/Src/i2cSoft.c **** 	i2cSoft_PutByte( addr >> 8 );
 149:Drivers/SoftI2C/Src/i2cSoft.c **** 	if ( !i2cSoft_WaitAck() ) 
 150:Drivers/SoftI2C/Src/i2cSoft.c **** 	{
 151:Drivers/SoftI2C/Src/i2cSoft.c **** 		i2cSoft_Stop();
 152:Drivers/SoftI2C/Src/i2cSoft.c **** 		return I2C_RESULT_ERROR;
 153:Drivers/SoftI2C/Src/i2cSoft.c **** 	}
 154:Drivers/SoftI2C/Src/i2cSoft.c **** 	i2cSoft_PutByte( addr & 0xFF );
 155:Drivers/SoftI2C/Src/i2cSoft.c **** 	if ( !i2cSoft_WaitAck() ) 
 156:Drivers/SoftI2C/Src/i2cSoft.c **** 	{
 157:Drivers/SoftI2C/Src/i2cSoft.c **** 		i2cSoft_Stop();
 158:Drivers/SoftI2C/Src/i2cSoft.c **** 		return I2C_RESULT_ERROR;
 159:Drivers/SoftI2C/Src/i2cSoft.c **** 	}
 160:Drivers/SoftI2C/Src/i2cSoft.c **** 	i2cSoft_Start();
ARM GAS  C:\Users\madmax\AppData\Local\Temp\ccD50Og2.s 			page 5


 161:Drivers/SoftI2C/Src/i2cSoft.c **** 	i2cSoft_PutByte( (TOSHIBA_I2C_ADDR << 1) + 1 );
 162:Drivers/SoftI2C/Src/i2cSoft.c **** 		if ( !i2cSoft_WaitAck() ) 
 163:Drivers/SoftI2C/Src/i2cSoft.c **** 	{
 164:Drivers/SoftI2C/Src/i2cSoft.c **** 		i2cSoft_Stop();
 165:Drivers/SoftI2C/Src/i2cSoft.c **** 		return I2C_RESULT_ERROR;
 166:Drivers/SoftI2C/Src/i2cSoft.c **** 	}
 167:Drivers/SoftI2C/Src/i2cSoft.c **** //	
 168:Drivers/SoftI2C/Src/i2cSoft.c **** 	
 169:Drivers/SoftI2C/Src/i2cSoft.c **** 	uint8_t data = i2cSoft_GetByte();
 170:Drivers/SoftI2C/Src/i2cSoft.c **** 
 171:Drivers/SoftI2C/Src/i2cSoft.c **** 	i2cSoft_NoAck();
 172:Drivers/SoftI2C/Src/i2cSoft.c **** 	i2cSoft_Stop();
 173:Drivers/SoftI2C/Src/i2cSoft.c **** 	
 174:Drivers/SoftI2C/Src/i2cSoft.c **** 		return data;
 175:Drivers/SoftI2C/Src/i2cSoft.c **** }
 176:Drivers/SoftI2C/Src/i2cSoft.c **** uint8_t TC358870_i2c_Read8(uint16_t addr, uint8_t *data)
 177:Drivers/SoftI2C/Src/i2cSoft.c **** {
 178:Drivers/SoftI2C/Src/i2cSoft.c **** 	
 179:Drivers/SoftI2C/Src/i2cSoft.c **** 
 180:Drivers/SoftI2C/Src/i2cSoft.c **** 
 181:Drivers/SoftI2C/Src/i2cSoft.c **** 	if ( !i2cSoft_Start() )
 182:Drivers/SoftI2C/Src/i2cSoft.c **** 		return I2C_RESULT_ERROR;
 183:Drivers/SoftI2C/Src/i2cSoft.c **** 
 184:Drivers/SoftI2C/Src/i2cSoft.c **** 	i2cSoft_PutByte( TOSHIBA_I2C_ADDR << 1 );
 185:Drivers/SoftI2C/Src/i2cSoft.c **** 	if ( !i2cSoft_WaitAck() ) 
 186:Drivers/SoftI2C/Src/i2cSoft.c **** 	{
 187:Drivers/SoftI2C/Src/i2cSoft.c **** 		i2cSoft_Stop();
 188:Drivers/SoftI2C/Src/i2cSoft.c **** 		return I2C_RESULT_ERROR;
 189:Drivers/SoftI2C/Src/i2cSoft.c **** 	}
 190:Drivers/SoftI2C/Src/i2cSoft.c **** 	i2cSoft_PutByte( addr >> 8 );
 191:Drivers/SoftI2C/Src/i2cSoft.c **** 	if ( !i2cSoft_WaitAck() ) 
 192:Drivers/SoftI2C/Src/i2cSoft.c **** 	{
 193:Drivers/SoftI2C/Src/i2cSoft.c **** 		i2cSoft_Stop();
 194:Drivers/SoftI2C/Src/i2cSoft.c **** 		return I2C_RESULT_ERROR;
 195:Drivers/SoftI2C/Src/i2cSoft.c **** 	}
 196:Drivers/SoftI2C/Src/i2cSoft.c **** 	i2cSoft_PutByte( addr & 0xFF );
 197:Drivers/SoftI2C/Src/i2cSoft.c **** 	if ( !i2cSoft_WaitAck() ) 
 198:Drivers/SoftI2C/Src/i2cSoft.c **** 	{
 199:Drivers/SoftI2C/Src/i2cSoft.c **** 		i2cSoft_Stop();
 200:Drivers/SoftI2C/Src/i2cSoft.c **** 		return I2C_RESULT_ERROR;
 201:Drivers/SoftI2C/Src/i2cSoft.c **** 	}
 202:Drivers/SoftI2C/Src/i2cSoft.c **** 	i2cSoft_Start();
 203:Drivers/SoftI2C/Src/i2cSoft.c **** 	i2cSoft_PutByte( (TOSHIBA_I2C_ADDR << 1) + 1 );
 204:Drivers/SoftI2C/Src/i2cSoft.c **** 		if ( !i2cSoft_WaitAck() ) 
 205:Drivers/SoftI2C/Src/i2cSoft.c **** 	{
 206:Drivers/SoftI2C/Src/i2cSoft.c **** 		i2cSoft_Stop();
 207:Drivers/SoftI2C/Src/i2cSoft.c **** 		return I2C_RESULT_ERROR;
 208:Drivers/SoftI2C/Src/i2cSoft.c **** 	}
 209:Drivers/SoftI2C/Src/i2cSoft.c **** //	
 210:Drivers/SoftI2C/Src/i2cSoft.c **** 	
 211:Drivers/SoftI2C/Src/i2cSoft.c **** 	*data = i2cSoft_GetByte();
 212:Drivers/SoftI2C/Src/i2cSoft.c **** 
 213:Drivers/SoftI2C/Src/i2cSoft.c **** 	i2cSoft_NoAck();
 214:Drivers/SoftI2C/Src/i2cSoft.c **** 	i2cSoft_Stop();
 215:Drivers/SoftI2C/Src/i2cSoft.c **** 	
 216:Drivers/SoftI2C/Src/i2cSoft.c **** 		return I2C_RESULT_SUCCESS;
 217:Drivers/SoftI2C/Src/i2cSoft.c **** }
ARM GAS  C:\Users\madmax\AppData\Local\Temp\ccD50Og2.s 			page 6


 218:Drivers/SoftI2C/Src/i2cSoft.c **** uint8_t TC358870_i2c_Read16(uint16_t addr, uint16_t *data )
 219:Drivers/SoftI2C/Src/i2cSoft.c **** {
 220:Drivers/SoftI2C/Src/i2cSoft.c **** 	
 221:Drivers/SoftI2C/Src/i2cSoft.c **** uint16_t ret = 0;
 222:Drivers/SoftI2C/Src/i2cSoft.c **** 
 223:Drivers/SoftI2C/Src/i2cSoft.c **** 	if ( !i2cSoft_Start() )
 224:Drivers/SoftI2C/Src/i2cSoft.c **** 		return I2C_RESULT_ERROR;
 225:Drivers/SoftI2C/Src/i2cSoft.c **** 
 226:Drivers/SoftI2C/Src/i2cSoft.c **** 	i2cSoft_PutByte( TOSHIBA_I2C_ADDR << 1 );
 227:Drivers/SoftI2C/Src/i2cSoft.c **** 	if ( !i2cSoft_WaitAck() ) 
 228:Drivers/SoftI2C/Src/i2cSoft.c **** 	{
 229:Drivers/SoftI2C/Src/i2cSoft.c **** 		i2cSoft_Stop();
 230:Drivers/SoftI2C/Src/i2cSoft.c **** 		return I2C_RESULT_ERROR;
 231:Drivers/SoftI2C/Src/i2cSoft.c **** 	}
 232:Drivers/SoftI2C/Src/i2cSoft.c **** 	i2cSoft_PutByte( addr >> 8 );
 233:Drivers/SoftI2C/Src/i2cSoft.c **** 	if ( !i2cSoft_WaitAck() ) 
 234:Drivers/SoftI2C/Src/i2cSoft.c **** 	{
 235:Drivers/SoftI2C/Src/i2cSoft.c **** 		i2cSoft_Stop();
 236:Drivers/SoftI2C/Src/i2cSoft.c **** 		return I2C_RESULT_ERROR;
 237:Drivers/SoftI2C/Src/i2cSoft.c **** 	}
 238:Drivers/SoftI2C/Src/i2cSoft.c **** 	i2cSoft_PutByte( addr & 0xFF );
 239:Drivers/SoftI2C/Src/i2cSoft.c **** 	if ( !i2cSoft_WaitAck() ) 
 240:Drivers/SoftI2C/Src/i2cSoft.c **** 	{
 241:Drivers/SoftI2C/Src/i2cSoft.c **** 		i2cSoft_Stop();
 242:Drivers/SoftI2C/Src/i2cSoft.c **** 		return I2C_RESULT_ERROR;
 243:Drivers/SoftI2C/Src/i2cSoft.c **** 	}
 244:Drivers/SoftI2C/Src/i2cSoft.c **** 	i2cSoft_Start();
 245:Drivers/SoftI2C/Src/i2cSoft.c **** 	i2cSoft_PutByte( (TOSHIBA_I2C_ADDR << 1) + 1 );
 246:Drivers/SoftI2C/Src/i2cSoft.c **** 		if ( !i2cSoft_WaitAck() ) 
 247:Drivers/SoftI2C/Src/i2cSoft.c **** 	{
 248:Drivers/SoftI2C/Src/i2cSoft.c **** 		i2cSoft_Stop();
 249:Drivers/SoftI2C/Src/i2cSoft.c **** 		return I2C_RESULT_ERROR;
 250:Drivers/SoftI2C/Src/i2cSoft.c **** 	}
 251:Drivers/SoftI2C/Src/i2cSoft.c **** //	
 252:Drivers/SoftI2C/Src/i2cSoft.c **** 	ret  = i2cSoft_GetByte();
 253:Drivers/SoftI2C/Src/i2cSoft.c **** 
 254:Drivers/SoftI2C/Src/i2cSoft.c **** 	if ( !i2cSoft_WaitAck() ) 
 255:Drivers/SoftI2C/Src/i2cSoft.c **** 	{
 256:Drivers/SoftI2C/Src/i2cSoft.c **** 		i2cSoft_Stop();
 257:Drivers/SoftI2C/Src/i2cSoft.c **** 		return I2C_RESULT_ERROR;
 258:Drivers/SoftI2C/Src/i2cSoft.c **** 	}
 259:Drivers/SoftI2C/Src/i2cSoft.c **** 	ret = ret | (i2cSoft_GetByte() << 8);
 260:Drivers/SoftI2C/Src/i2cSoft.c **** 	data += ret;
 261:Drivers/SoftI2C/Src/i2cSoft.c **** 	i2cSoft_NoAck();
 262:Drivers/SoftI2C/Src/i2cSoft.c **** 	i2cSoft_Stop();
 263:Drivers/SoftI2C/Src/i2cSoft.c **** 
 264:Drivers/SoftI2C/Src/i2cSoft.c **** 		return I2C_RESULT_SUCCESS;
 265:Drivers/SoftI2C/Src/i2cSoft.c **** }
 266:Drivers/SoftI2C/Src/i2cSoft.c **** uint8_t TC358870_i2c_Read32(uint16_t addr, uint32_t *data )
 267:Drivers/SoftI2C/Src/i2cSoft.c **** {
 268:Drivers/SoftI2C/Src/i2cSoft.c **** 	
 269:Drivers/SoftI2C/Src/i2cSoft.c **** uint32_t ret = 0;
 270:Drivers/SoftI2C/Src/i2cSoft.c **** 
 271:Drivers/SoftI2C/Src/i2cSoft.c **** 	if ( !i2cSoft_Start() )
 272:Drivers/SoftI2C/Src/i2cSoft.c **** 		return I2C_RESULT_ERROR;
 273:Drivers/SoftI2C/Src/i2cSoft.c **** 
 274:Drivers/SoftI2C/Src/i2cSoft.c **** 	i2cSoft_PutByte( TOSHIBA_I2C_ADDR << 1 );
ARM GAS  C:\Users\madmax\AppData\Local\Temp\ccD50Og2.s 			page 7


 275:Drivers/SoftI2C/Src/i2cSoft.c **** 	if ( !i2cSoft_WaitAck() ) 
 276:Drivers/SoftI2C/Src/i2cSoft.c **** 	{
 277:Drivers/SoftI2C/Src/i2cSoft.c **** 		i2cSoft_Stop();
 278:Drivers/SoftI2C/Src/i2cSoft.c **** 		return I2C_RESULT_ERROR;
 279:Drivers/SoftI2C/Src/i2cSoft.c **** 	}
 280:Drivers/SoftI2C/Src/i2cSoft.c **** 	i2cSoft_PutByte( addr >> 8 );
 281:Drivers/SoftI2C/Src/i2cSoft.c **** 	if ( !i2cSoft_WaitAck() ) 
 282:Drivers/SoftI2C/Src/i2cSoft.c **** 	{
 283:Drivers/SoftI2C/Src/i2cSoft.c **** 		i2cSoft_Stop();
 284:Drivers/SoftI2C/Src/i2cSoft.c **** 		return I2C_RESULT_ERROR;
 285:Drivers/SoftI2C/Src/i2cSoft.c **** 	}
 286:Drivers/SoftI2C/Src/i2cSoft.c **** 	i2cSoft_PutByte( addr & 0xFF );
 287:Drivers/SoftI2C/Src/i2cSoft.c **** 	if ( !i2cSoft_WaitAck() ) 
 288:Drivers/SoftI2C/Src/i2cSoft.c **** 	{
 289:Drivers/SoftI2C/Src/i2cSoft.c **** 		i2cSoft_Stop();
 290:Drivers/SoftI2C/Src/i2cSoft.c **** 		return I2C_RESULT_ERROR;
 291:Drivers/SoftI2C/Src/i2cSoft.c **** 	}
 292:Drivers/SoftI2C/Src/i2cSoft.c **** 	i2cSoft_Start();
 293:Drivers/SoftI2C/Src/i2cSoft.c **** 	i2cSoft_PutByte( (TOSHIBA_I2C_ADDR << 1) + 1 );
 294:Drivers/SoftI2C/Src/i2cSoft.c **** 		if ( !i2cSoft_WaitAck() ) 
 295:Drivers/SoftI2C/Src/i2cSoft.c **** 	{
 296:Drivers/SoftI2C/Src/i2cSoft.c **** 		i2cSoft_Stop();
 297:Drivers/SoftI2C/Src/i2cSoft.c **** 		return I2C_RESULT_ERROR;
 298:Drivers/SoftI2C/Src/i2cSoft.c **** 	}
 299:Drivers/SoftI2C/Src/i2cSoft.c **** //	
 300:Drivers/SoftI2C/Src/i2cSoft.c **** 	
 301:Drivers/SoftI2C/Src/i2cSoft.c **** 	ret = i2cSoft_GetByte();
 302:Drivers/SoftI2C/Src/i2cSoft.c **** 	if ( !i2cSoft_WaitAck() ) 
 303:Drivers/SoftI2C/Src/i2cSoft.c **** 	{
 304:Drivers/SoftI2C/Src/i2cSoft.c **** 		i2cSoft_Stop();
 305:Drivers/SoftI2C/Src/i2cSoft.c **** 		return I2C_RESULT_ERROR;
 306:Drivers/SoftI2C/Src/i2cSoft.c **** 	}
 307:Drivers/SoftI2C/Src/i2cSoft.c **** 		ret =  ret | (i2cSoft_GetByte() << 8);
 308:Drivers/SoftI2C/Src/i2cSoft.c **** 		
 309:Drivers/SoftI2C/Src/i2cSoft.c **** 	if ( !i2cSoft_WaitAck() ) 
 310:Drivers/SoftI2C/Src/i2cSoft.c **** 	{
 311:Drivers/SoftI2C/Src/i2cSoft.c **** 		i2cSoft_Stop();
 312:Drivers/SoftI2C/Src/i2cSoft.c **** 		return I2C_RESULT_ERROR;
 313:Drivers/SoftI2C/Src/i2cSoft.c **** 	}
 314:Drivers/SoftI2C/Src/i2cSoft.c **** 	 ret = ret | (i2cSoft_GetByte() << 16);
 315:Drivers/SoftI2C/Src/i2cSoft.c **** 	 data += ret;
 316:Drivers/SoftI2C/Src/i2cSoft.c **** 	i2cSoft_NoAck();
 317:Drivers/SoftI2C/Src/i2cSoft.c **** 	i2cSoft_Stop();
 318:Drivers/SoftI2C/Src/i2cSoft.c **** 
 319:Drivers/SoftI2C/Src/i2cSoft.c **** 		return I2C_RESULT_SUCCESS;
 320:Drivers/SoftI2C/Src/i2cSoft.c **** }
 321:Drivers/SoftI2C/Src/i2cSoft.c **** int i2cSoft_Mem_Read (uint8_t chipAddress, uint8_t memaddr,  uint8_t *buffer, uint32_t sizeOfBuffer
 322:Drivers/SoftI2C/Src/i2cSoft.c **** {
 323:Drivers/SoftI2C/Src/i2cSoft.c **** 	if ( !i2cSoft_Start() )
 324:Drivers/SoftI2C/Src/i2cSoft.c **** 		return I2C_RESULT_ERROR;
 325:Drivers/SoftI2C/Src/i2cSoft.c **** 
 326:Drivers/SoftI2C/Src/i2cSoft.c **** 	i2cSoft_PutByte( chipAddress << 1 );
 327:Drivers/SoftI2C/Src/i2cSoft.c **** 	if ( !i2cSoft_WaitAck() ) 
 328:Drivers/SoftI2C/Src/i2cSoft.c **** 	{
 329:Drivers/SoftI2C/Src/i2cSoft.c **** 		i2cSoft_Stop();
 330:Drivers/SoftI2C/Src/i2cSoft.c **** 		return I2C_RESULT_ERROR;
 331:Drivers/SoftI2C/Src/i2cSoft.c **** 	}
ARM GAS  C:\Users\madmax\AppData\Local\Temp\ccD50Og2.s 			page 8


 332:Drivers/SoftI2C/Src/i2cSoft.c **** 	i2cSoft_PutByte( memaddr );
 333:Drivers/SoftI2C/Src/i2cSoft.c **** 	if ( !i2cSoft_WaitAck() ) 
 334:Drivers/SoftI2C/Src/i2cSoft.c **** 	{
 335:Drivers/SoftI2C/Src/i2cSoft.c **** 		i2cSoft_Stop();
 336:Drivers/SoftI2C/Src/i2cSoft.c **** 		return I2C_RESULT_ERROR;
 337:Drivers/SoftI2C/Src/i2cSoft.c **** 	}
 338:Drivers/SoftI2C/Src/i2cSoft.c **** 		if ( !i2cSoft_Start() )
 339:Drivers/SoftI2C/Src/i2cSoft.c **** 		return I2C_RESULT_ERROR;
 340:Drivers/SoftI2C/Src/i2cSoft.c **** 	i2cSoft_PutByte( (chipAddress << 1) + 1 );
 341:Drivers/SoftI2C/Src/i2cSoft.c **** 		if ( !i2cSoft_WaitAck() ) 
 342:Drivers/SoftI2C/Src/i2cSoft.c **** 	{
 343:Drivers/SoftI2C/Src/i2cSoft.c **** 		i2cSoft_Stop();
 344:Drivers/SoftI2C/Src/i2cSoft.c **** 		return I2C_RESULT_ERROR;
 345:Drivers/SoftI2C/Src/i2cSoft.c **** 	}
 346:Drivers/SoftI2C/Src/i2cSoft.c **** 
 347:Drivers/SoftI2C/Src/i2cSoft.c **** 	while ( sizeOfBuffer != 0 ) {
 348:Drivers/SoftI2C/Src/i2cSoft.c **** 		*buffer = i2cSoft_GetByte();
 349:Drivers/SoftI2C/Src/i2cSoft.c **** 
 350:Drivers/SoftI2C/Src/i2cSoft.c **** 		buffer++;
 351:Drivers/SoftI2C/Src/i2cSoft.c **** 		sizeOfBuffer--;
 352:Drivers/SoftI2C/Src/i2cSoft.c **** 		if ( sizeOfBuffer == 0 ) {
 353:Drivers/SoftI2C/Src/i2cSoft.c **** 			i2cSoft_NoAck();
 354:Drivers/SoftI2C/Src/i2cSoft.c **** 			break;
 355:Drivers/SoftI2C/Src/i2cSoft.c **** 		}
 356:Drivers/SoftI2C/Src/i2cSoft.c **** 		else
 357:Drivers/SoftI2C/Src/i2cSoft.c **** 			i2cSoft_Ack();
 358:Drivers/SoftI2C/Src/i2cSoft.c **** 	}
 359:Drivers/SoftI2C/Src/i2cSoft.c **** 	i2cSoft_Stop();
 360:Drivers/SoftI2C/Src/i2cSoft.c **** 	return I2C_RESULT_SUCCESS;
 361:Drivers/SoftI2C/Src/i2cSoft.c **** 
 362:Drivers/SoftI2C/Src/i2cSoft.c **** }
 363:Drivers/SoftI2C/Src/i2cSoft.c **** /**
 364:Drivers/SoftI2C/Src/i2cSoft.c ****  *	@brief	–ß—Ç–µ–Ω–∏–µ –¥–∞–Ω–Ω—ã—Ö –∏–∑ —à–∏–Ω—ã –≤ –±—É—Ñ–µ—Ä buffer, —Ä–∞–∑–º–µ—Ä–æ–º sizeOfBuff
 365:Drivers/SoftI2C/Src/i2cSoft.c ****  *			—É —Å–ª–µ–π–≤–∞ —Å –∞–¥—Ä–µ—Å–æ–º chipAddress.
 366:Drivers/SoftI2C/Src/i2cSoft.c ****  *	@param	uint8_t chipAddress		- –∞–¥—Ä–µ—Å –ø–æ–¥—á–∏–Ω–µ–Ω–Ω–æ–≥–æ
 367:Drivers/SoftI2C/Src/i2cSoft.c ****  *			uint8_t *buffer			- —É–∫–∞–∑–∞—Ç–µ–ª—å –Ω–∞ –±—É—Ñ–µ—Ä, –∫—É–¥–∞ –∫–ª–∞—Å—Ç—å
 368:Drivers/SoftI2C/Src/i2cSoft.c ****  *									  –ø—Ä–æ—á–∏—Ç–∞–Ω–Ω—ã–µ –¥–∞–Ω–Ω—ã–µ
 369:Drivers/SoftI2C/Src/i2cSoft.c ****  *			uint32_t sizeOfBuffer	- –∫–æ–ª–∏—á–µ—Å—Ç–≤–æ –±–∞–π—Ç –¥–ª—è —á—Ç–µ–Ω–∏—è
 370:Drivers/SoftI2C/Src/i2cSoft.c ****  *	@return	int - —Ä–µ–∑—É–ª—å—Ç–∞—Ç –≤—ã–ø–æ–ª–Ω–µ–Ω–∏—è —Ñ—É–Ω—Ü–∏–∏:
 371:Drivers/SoftI2C/Src/i2cSoft.c ****  *			I2C_RESULT_SUCCESS	- –≤ —Å–ª—É—á–∞–µ —É—Å–ø–µ—Ö–∞
 372:Drivers/SoftI2C/Src/i2cSoft.c ****  *			I2C_RESULT_ERROR	- –≤ —Å–ª—É—á–∞–µ –æ—à–∏–±–∫–∏
 373:Drivers/SoftI2C/Src/i2cSoft.c ****  */
 374:Drivers/SoftI2C/Src/i2cSoft.c **** 
 375:Drivers/SoftI2C/Src/i2cSoft.c **** 
 376:Drivers/SoftI2C/Src/i2cSoft.c **** int i2cSoft_ReadBuffer ( uint8_t chipAddress, uint8_t *buffer, uint32_t sizeOfBuffer )
 377:Drivers/SoftI2C/Src/i2cSoft.c **** {
 378:Drivers/SoftI2C/Src/i2cSoft.c **** 	if ( !i2cSoft_Start() )
 379:Drivers/SoftI2C/Src/i2cSoft.c **** 		return I2C_RESULT_ERROR;
 380:Drivers/SoftI2C/Src/i2cSoft.c **** chipAddress = chipAddress << 1;
 381:Drivers/SoftI2C/Src/i2cSoft.c ****     i2cSoft_PutByte( chipAddress + 1 );
 382:Drivers/SoftI2C/Src/i2cSoft.c ****     if ( !i2cSoft_WaitAck() ) {
 383:Drivers/SoftI2C/Src/i2cSoft.c ****         i2cSoft_Stop();
 384:Drivers/SoftI2C/Src/i2cSoft.c ****         return I2C_RESULT_ERROR;
 385:Drivers/SoftI2C/Src/i2cSoft.c ****     }
 386:Drivers/SoftI2C/Src/i2cSoft.c ****  
 387:Drivers/SoftI2C/Src/i2cSoft.c ****     while ( sizeOfBuffer != 0 ) {
 388:Drivers/SoftI2C/Src/i2cSoft.c ****         *buffer = i2cSoft_GetByte();
ARM GAS  C:\Users\madmax\AppData\Local\Temp\ccD50Og2.s 			page 9


 389:Drivers/SoftI2C/Src/i2cSoft.c ****  
 390:Drivers/SoftI2C/Src/i2cSoft.c ****         buffer++;
 391:Drivers/SoftI2C/Src/i2cSoft.c ****         sizeOfBuffer--;
 392:Drivers/SoftI2C/Src/i2cSoft.c ****         if ( sizeOfBuffer == 0 ) {
 393:Drivers/SoftI2C/Src/i2cSoft.c ****             i2cSoft_NoAck();
 394:Drivers/SoftI2C/Src/i2cSoft.c ****             break;
 395:Drivers/SoftI2C/Src/i2cSoft.c ****         }
 396:Drivers/SoftI2C/Src/i2cSoft.c ****         else
 397:Drivers/SoftI2C/Src/i2cSoft.c ****             i2cSoft_Ack();
 398:Drivers/SoftI2C/Src/i2cSoft.c ****     }
 399:Drivers/SoftI2C/Src/i2cSoft.c ****     i2cSoft_Stop();
 400:Drivers/SoftI2C/Src/i2cSoft.c ****     return I2C_RESULT_SUCCESS;
 401:Drivers/SoftI2C/Src/i2cSoft.c **** }
 402:Drivers/SoftI2C/Src/i2cSoft.c **** 
 403:Drivers/SoftI2C/Src/i2cSoft.c **** /**
 404:Drivers/SoftI2C/Src/i2cSoft.c ****  *	@brief	–ó–∞–ø–∏—Å—å –¥–∞–Ω–Ω—ã—Ö –≤ —à–∏–Ω—É –∏–∑ –±—É—Ñ–µ—Ä–∞ buffer, —Ä–∞–∑–º–µ—Ä–æ–º sizeOfBu
 405:Drivers/SoftI2C/Src/i2cSoft.c ****  *			–≤ —Å–ª–µ–π–≤–∞ —Å –∞–¥—Ä–µ—Å–æ–º chipAddress.
 406:Drivers/SoftI2C/Src/i2cSoft.c ****  *	@param	uint8_t chipAddress		- –∞–¥—Ä–µ—Å –ø–æ–¥—á–∏–Ω–µ–Ω–Ω–æ–≥–æ
 407:Drivers/SoftI2C/Src/i2cSoft.c ****  *			uint8_t *buffer			- —É–∫–∞–∑–∞—Ç–µ–ª—å –Ω–∞ –±—É—Ñ–µ—Ä, –æ—Ç–∫—É–¥–∞ —á–∏—Ç–∞—Ç—å
 408:Drivers/SoftI2C/Src/i2cSoft.c ****  *									  –∑–∞–ø–∏—Å—ã–≤–∞–µ–º—ã–µ –¥–∞–Ω–Ω—ã–µ
 409:Drivers/SoftI2C/Src/i2cSoft.c ****  *			uint32_t sizeOfBuffer	- –∫–æ–ª–∏—á–µ—Å—Ç–≤–æ –±–∞–π—Ç –¥–ª—è –∑–∞–ø–∏—Å–∏
 410:Drivers/SoftI2C/Src/i2cSoft.c ****  *	@return	int - —Ä–µ–∑—É–ª—å—Ç–∞—Ç –≤—ã–ø–æ–ª–Ω–µ–Ω–∏—è —Ñ—É–Ω—Ü–∏–∏:
 411:Drivers/SoftI2C/Src/i2cSoft.c ****  *			I2C_RESULT_SUCCESS	- –≤ —Å–ª—É—á–∞–µ —É—Å–ø–µ—Ö–∞
 412:Drivers/SoftI2C/Src/i2cSoft.c ****  *			I2C_RESULT_ERROR	- –≤ —Å–ª—É—á–∞–µ –æ—à–∏–±–∫–∏
 413:Drivers/SoftI2C/Src/i2cSoft.c ****  */
 414:Drivers/SoftI2C/Src/i2cSoft.c **** int i2cSoft_WriteBuffer ( uint8_t chipAddress, uint8_t *buffer, uint32_t sizeOfBuffer )
 415:Drivers/SoftI2C/Src/i2cSoft.c **** {
 416:Drivers/SoftI2C/Src/i2cSoft.c **** 		if ( !i2cSoft_Start() )
 417:Drivers/SoftI2C/Src/i2cSoft.c **** 		return I2C_RESULT_ERROR;
 418:Drivers/SoftI2C/Src/i2cSoft.c **** 
 419:Drivers/SoftI2C/Src/i2cSoft.c **** 	i2cSoft_PutByte( chipAddress << 1);
 420:Drivers/SoftI2C/Src/i2cSoft.c **** 	if ( !i2cSoft_WaitAck() ) {
 421:Drivers/SoftI2C/Src/i2cSoft.c **** 		i2cSoft_Stop();
 422:Drivers/SoftI2C/Src/i2cSoft.c **** 		return I2C_RESULT_ERROR;
 423:Drivers/SoftI2C/Src/i2cSoft.c **** 	}
 424:Drivers/SoftI2C/Src/i2cSoft.c **** 
 425:Drivers/SoftI2C/Src/i2cSoft.c **** 	while ( sizeOfBuffer != 0 ) {
 426:Drivers/SoftI2C/Src/i2cSoft.c **** 		i2cSoft_PutByte( *buffer );
 427:Drivers/SoftI2C/Src/i2cSoft.c **** 		if ( !i2cSoft_WaitAck() ) {
 428:Drivers/SoftI2C/Src/i2cSoft.c **** 			i2cSoft_Stop();
 429:Drivers/SoftI2C/Src/i2cSoft.c **** 			return I2C_RESULT_ERROR;
 430:Drivers/SoftI2C/Src/i2cSoft.c **** 		}
 431:Drivers/SoftI2C/Src/i2cSoft.c **** 
 432:Drivers/SoftI2C/Src/i2cSoft.c **** 		buffer++;
 433:Drivers/SoftI2C/Src/i2cSoft.c **** 		sizeOfBuffer--;
 434:Drivers/SoftI2C/Src/i2cSoft.c **** 	}
 435:Drivers/SoftI2C/Src/i2cSoft.c **** 	i2cSoft_Stop();
 436:Drivers/SoftI2C/Src/i2cSoft.c **** 	i2cSoft_Delay();
 437:Drivers/SoftI2C/Src/i2cSoft.c **** 	return I2C_RESULT_SUCCESS;
 438:Drivers/SoftI2C/Src/i2cSoft.c **** 
 439:Drivers/SoftI2C/Src/i2cSoft.c **** 	/*
 440:Drivers/SoftI2C/Src/i2cSoft.c **** 	if ( !i2cSoft_Start() )
 441:Drivers/SoftI2C/Src/i2cSoft.c **** 		return I2C_RESULT_ERROR;
 442:Drivers/SoftI2C/Src/i2cSoft.c **** 
 443:Drivers/SoftI2C/Src/i2cSoft.c **** 	i2cSoft_PutByte( chipAddress << 1 );
 444:Drivers/SoftI2C/Src/i2cSoft.c **** 	if ( !i2cSoft_WaitAck() ) {
 445:Drivers/SoftI2C/Src/i2cSoft.c **** 		i2cSoft_Stop();
ARM GAS  C:\Users\madmax\AppData\Local\Temp\ccD50Og2.s 			page 10


 446:Drivers/SoftI2C/Src/i2cSoft.c **** 		return I2C_RESULT_ERROR;
 447:Drivers/SoftI2C/Src/i2cSoft.c **** 	}
 448:Drivers/SoftI2C/Src/i2cSoft.c **** 
 449:Drivers/SoftI2C/Src/i2cSoft.c **** 	while ( sizeOfBuffer != 0 ) {
 450:Drivers/SoftI2C/Src/i2cSoft.c **** 		i2cSoft_PutByte( *buffer );
 451:Drivers/SoftI2C/Src/i2cSoft.c **** 		if ( !i2cSoft_WaitAck() ) {
 452:Drivers/SoftI2C/Src/i2cSoft.c **** 			i2cSoft_Stop();
 453:Drivers/SoftI2C/Src/i2cSoft.c **** 			return I2C_RESULT_ERROR;
 454:Drivers/SoftI2C/Src/i2cSoft.c **** 		}
 455:Drivers/SoftI2C/Src/i2cSoft.c **** 
 456:Drivers/SoftI2C/Src/i2cSoft.c **** 		buffer++;
 457:Drivers/SoftI2C/Src/i2cSoft.c **** 		sizeOfBuffer--;
 458:Drivers/SoftI2C/Src/i2cSoft.c **** 	}
 459:Drivers/SoftI2C/Src/i2cSoft.c **** 	i2cSoft_Stop();
 460:Drivers/SoftI2C/Src/i2cSoft.c **** 	return I2C_RESULT_SUCCESS;
 461:Drivers/SoftI2C/Src/i2cSoft.c **** 	*/
 462:Drivers/SoftI2C/Src/i2cSoft.c **** }
 463:Drivers/SoftI2C/Src/i2cSoft.c **** 
 464:Drivers/SoftI2C/Src/i2cSoft.c **** int i2cSoft_WriteByteOled ( uint8_t chipAddress, uint8_t data )
 465:Drivers/SoftI2C/Src/i2cSoft.c **** {
 466:Drivers/SoftI2C/Src/i2cSoft.c **** 
 467:Drivers/SoftI2C/Src/i2cSoft.c **** 	if ( !i2cSoft_Start() )
 468:Drivers/SoftI2C/Src/i2cSoft.c **** 		return I2C_RESULT_ERROR;
 469:Drivers/SoftI2C/Src/i2cSoft.c **** i2cSoft_Delay();
 470:Drivers/SoftI2C/Src/i2cSoft.c **** i2cSoft_Delay();
 471:Drivers/SoftI2C/Src/i2cSoft.c **** 	i2cSoft_PutByte( chipAddress << 1);
 472:Drivers/SoftI2C/Src/i2cSoft.c **** 	if ( !i2cSoft_WaitAck() ) 
 473:Drivers/SoftI2C/Src/i2cSoft.c **** 	{
 474:Drivers/SoftI2C/Src/i2cSoft.c **** 		i2cSoft_Stop();
 475:Drivers/SoftI2C/Src/i2cSoft.c **** 		return I2C_RESULT_ERROR;
 476:Drivers/SoftI2C/Src/i2cSoft.c **** 	}
 477:Drivers/SoftI2C/Src/i2cSoft.c **** 
 478:Drivers/SoftI2C/Src/i2cSoft.c **** 	i2cSoft_PutByte( data );
 479:Drivers/SoftI2C/Src/i2cSoft.c **** 		if ( !i2cSoft_WaitAck() ) 
 480:Drivers/SoftI2C/Src/i2cSoft.c **** 		{
 481:Drivers/SoftI2C/Src/i2cSoft.c **** 			i2cSoft_Stop();
 482:Drivers/SoftI2C/Src/i2cSoft.c **** 			return I2C_RESULT_ERROR;
 483:Drivers/SoftI2C/Src/i2cSoft.c **** 		}
 484:Drivers/SoftI2C/Src/i2cSoft.c **** 
 485:Drivers/SoftI2C/Src/i2cSoft.c **** 
 486:Drivers/SoftI2C/Src/i2cSoft.c **** 	
 487:Drivers/SoftI2C/Src/i2cSoft.c **** 	i2cSoft_Stop();
 488:Drivers/SoftI2C/Src/i2cSoft.c **** 	return I2C_RESULT_SUCCESS;	
 489:Drivers/SoftI2C/Src/i2cSoft.c **** }
 490:Drivers/SoftI2C/Src/i2cSoft.c **** int i2cSoft_DeviceReady ( uint8_t chipAddress )
 491:Drivers/SoftI2C/Src/i2cSoft.c **** {
 492:Drivers/SoftI2C/Src/i2cSoft.c **** 	int x = 20;
 493:Drivers/SoftI2C/Src/i2cSoft.c **** 	while(x)
 494:Drivers/SoftI2C/Src/i2cSoft.c **** 	{
 495:Drivers/SoftI2C/Src/i2cSoft.c **** 		i2cSoft_Delay();
 496:Drivers/SoftI2C/Src/i2cSoft.c **** 			if ( !i2cSoft_Start() )
 497:Drivers/SoftI2C/Src/i2cSoft.c **** 				{
 498:Drivers/SoftI2C/Src/i2cSoft.c **** 					i2cSoft_Stop();
 499:Drivers/SoftI2C/Src/i2cSoft.c **** 					i2cSoft_Delay();
 500:Drivers/SoftI2C/Src/i2cSoft.c **** 					return 0;
 501:Drivers/SoftI2C/Src/i2cSoft.c **** 				}
 502:Drivers/SoftI2C/Src/i2cSoft.c **** 			i2cSoft_Delay();
ARM GAS  C:\Users\madmax\AppData\Local\Temp\ccD50Og2.s 			page 11


 503:Drivers/SoftI2C/Src/i2cSoft.c **** 			i2cSoft_PutByte( chipAddress << 1 );
 504:Drivers/SoftI2C/Src/i2cSoft.c **** 			if ( i2cSoft_WaitAck() ) 
 505:Drivers/SoftI2C/Src/i2cSoft.c **** 				{
 506:Drivers/SoftI2C/Src/i2cSoft.c **** 					i2cSoft_Stop();
 507:Drivers/SoftI2C/Src/i2cSoft.c **** 					return 1;
 508:Drivers/SoftI2C/Src/i2cSoft.c **** 				}
 509:Drivers/SoftI2C/Src/i2cSoft.c **** 		i2cSoft_Stop();
 510:Drivers/SoftI2C/Src/i2cSoft.c **** 		x--;
 511:Drivers/SoftI2C/Src/i2cSoft.c **** 	}
 512:Drivers/SoftI2C/Src/i2cSoft.c **** return 0;
 513:Drivers/SoftI2C/Src/i2cSoft.c **** }
 514:Drivers/SoftI2C/Src/i2cSoft.c **** int i2cSoft_DeviceExists ( uint8_t chipAddress )
 515:Drivers/SoftI2C/Src/i2cSoft.c **** {
 516:Drivers/SoftI2C/Src/i2cSoft.c **** 	
 517:Drivers/SoftI2C/Src/i2cSoft.c **** 	i2cSoft_Delay();
 518:Drivers/SoftI2C/Src/i2cSoft.c **** 		if ( !i2cSoft_Start() )	
 519:Drivers/SoftI2C/Src/i2cSoft.c **** 		{
 520:Drivers/SoftI2C/Src/i2cSoft.c **** 			i2cSoft_Stop();
 521:Drivers/SoftI2C/Src/i2cSoft.c **** 			i2cSoft_Delay();
 522:Drivers/SoftI2C/Src/i2cSoft.c **** 			return 0;
 523:Drivers/SoftI2C/Src/i2cSoft.c **** 		}
 524:Drivers/SoftI2C/Src/i2cSoft.c **** 		i2cSoft_Delay();
 525:Drivers/SoftI2C/Src/i2cSoft.c **** 		i2cSoft_PutByte( chipAddress << 1 );
 526:Drivers/SoftI2C/Src/i2cSoft.c **** 			if ( i2cSoft_WaitAck() ) 
 527:Drivers/SoftI2C/Src/i2cSoft.c **** 			{
 528:Drivers/SoftI2C/Src/i2cSoft.c **** 			i2cSoft_Stop();
 529:Drivers/SoftI2C/Src/i2cSoft.c **** 			return 1;
 530:Drivers/SoftI2C/Src/i2cSoft.c **** 			}	
 531:Drivers/SoftI2C/Src/i2cSoft.c **** 		i2cSoft_Stop();
 532:Drivers/SoftI2C/Src/i2cSoft.c **** return 0;
 533:Drivers/SoftI2C/Src/i2cSoft.c **** }
 534:Drivers/SoftI2C/Src/i2cSoft.c **** 
 535:Drivers/SoftI2C/Src/i2cSoft.c **** 
 536:Drivers/SoftI2C/Src/i2cSoft.c **** int i2cSoft_WriteOled ( uint8_t chipAddress, uint8_t reg, uint8_t data )
 537:Drivers/SoftI2C/Src/i2cSoft.c **** {
 538:Drivers/SoftI2C/Src/i2cSoft.c **** 
 539:Drivers/SoftI2C/Src/i2cSoft.c **** 	if ( !i2cSoft_Start() )
 540:Drivers/SoftI2C/Src/i2cSoft.c **** 		return I2C_RESULT_ERROR;
 541:Drivers/SoftI2C/Src/i2cSoft.c **** i2cSoft_Delay();
 542:Drivers/SoftI2C/Src/i2cSoft.c **** //i2cSoft_Delay();
 543:Drivers/SoftI2C/Src/i2cSoft.c **** 	i2cSoft_PutByte( chipAddress << 1 );
 544:Drivers/SoftI2C/Src/i2cSoft.c **** 	if ( !i2cSoft_WaitAck() ) 
 545:Drivers/SoftI2C/Src/i2cSoft.c **** 	{
 546:Drivers/SoftI2C/Src/i2cSoft.c **** 		i2cSoft_Stop();
 547:Drivers/SoftI2C/Src/i2cSoft.c **** 		return I2C_RESULT_ERROR;
 548:Drivers/SoftI2C/Src/i2cSoft.c **** 	}
 549:Drivers/SoftI2C/Src/i2cSoft.c **** 		i2cSoft_PutByte( reg );
 550:Drivers/SoftI2C/Src/i2cSoft.c **** 		if ( !i2cSoft_WaitAck() ) 
 551:Drivers/SoftI2C/Src/i2cSoft.c **** 		{
 552:Drivers/SoftI2C/Src/i2cSoft.c **** 			i2cSoft_Stop();
 553:Drivers/SoftI2C/Src/i2cSoft.c **** 			return I2C_RESULT_ERROR;
 554:Drivers/SoftI2C/Src/i2cSoft.c **** 		}
 555:Drivers/SoftI2C/Src/i2cSoft.c **** 
 556:Drivers/SoftI2C/Src/i2cSoft.c **** 	i2cSoft_PutByte( data );
 557:Drivers/SoftI2C/Src/i2cSoft.c **** 		if ( !i2cSoft_WaitAck() ) 
 558:Drivers/SoftI2C/Src/i2cSoft.c **** 		{
 559:Drivers/SoftI2C/Src/i2cSoft.c **** 			i2cSoft_Stop();
ARM GAS  C:\Users\madmax\AppData\Local\Temp\ccD50Og2.s 			page 12


 560:Drivers/SoftI2C/Src/i2cSoft.c **** 			return I2C_RESULT_ERROR;
 561:Drivers/SoftI2C/Src/i2cSoft.c **** 		}
 562:Drivers/SoftI2C/Src/i2cSoft.c **** 
 563:Drivers/SoftI2C/Src/i2cSoft.c **** 
 564:Drivers/SoftI2C/Src/i2cSoft.c **** 	
 565:Drivers/SoftI2C/Src/i2cSoft.c **** 	i2cSoft_Stop();
 566:Drivers/SoftI2C/Src/i2cSoft.c **** 	return I2C_RESULT_SUCCESS;	
 567:Drivers/SoftI2C/Src/i2cSoft.c **** }
 568:Drivers/SoftI2C/Src/i2cSoft.c **** int i2cSoft_WriteByte ( uint8_t chipAddress,  uint16_t addr, uint8_t data )
 569:Drivers/SoftI2C/Src/i2cSoft.c **** {
 570:Drivers/SoftI2C/Src/i2cSoft.c **** 	if ( !i2cSoft_Start() )
 571:Drivers/SoftI2C/Src/i2cSoft.c **** 		return I2C_RESULT_ERROR;
 572:Drivers/SoftI2C/Src/i2cSoft.c **** 
 573:Drivers/SoftI2C/Src/i2cSoft.c **** 	i2cSoft_PutByte( chipAddress );
 574:Drivers/SoftI2C/Src/i2cSoft.c **** 	if ( !i2cSoft_WaitAck() ) 
 575:Drivers/SoftI2C/Src/i2cSoft.c **** 	{
 576:Drivers/SoftI2C/Src/i2cSoft.c **** 		i2cSoft_Stop();
 577:Drivers/SoftI2C/Src/i2cSoft.c **** 		return I2C_RESULT_ERROR;
 578:Drivers/SoftI2C/Src/i2cSoft.c **** 	}
 579:Drivers/SoftI2C/Src/i2cSoft.c **** 	i2cSoft_PutByte( addr >> 8 );
 580:Drivers/SoftI2C/Src/i2cSoft.c **** 		if ( !i2cSoft_WaitAck() ) 
 581:Drivers/SoftI2C/Src/i2cSoft.c **** 		{
 582:Drivers/SoftI2C/Src/i2cSoft.c **** 			i2cSoft_Stop();
 583:Drivers/SoftI2C/Src/i2cSoft.c **** 			return I2C_RESULT_ERROR;
 584:Drivers/SoftI2C/Src/i2cSoft.c **** 		}
 585:Drivers/SoftI2C/Src/i2cSoft.c **** 		i2cSoft_PutByte( addr & 0xFF );
 586:Drivers/SoftI2C/Src/i2cSoft.c **** 		if ( !i2cSoft_WaitAck() ) 
 587:Drivers/SoftI2C/Src/i2cSoft.c **** 		{
 588:Drivers/SoftI2C/Src/i2cSoft.c **** 			i2cSoft_Stop();
 589:Drivers/SoftI2C/Src/i2cSoft.c **** 			return I2C_RESULT_ERROR;
 590:Drivers/SoftI2C/Src/i2cSoft.c **** 		}
 591:Drivers/SoftI2C/Src/i2cSoft.c **** 	i2cSoft_PutByte( data );
 592:Drivers/SoftI2C/Src/i2cSoft.c **** 		if ( !i2cSoft_WaitAck() ) 
 593:Drivers/SoftI2C/Src/i2cSoft.c **** 		{
 594:Drivers/SoftI2C/Src/i2cSoft.c **** 			i2cSoft_Stop();
 595:Drivers/SoftI2C/Src/i2cSoft.c **** 			return I2C_RESULT_ERROR;
 596:Drivers/SoftI2C/Src/i2cSoft.c **** 		}
 597:Drivers/SoftI2C/Src/i2cSoft.c **** 
 598:Drivers/SoftI2C/Src/i2cSoft.c **** 
 599:Drivers/SoftI2C/Src/i2cSoft.c **** 	
 600:Drivers/SoftI2C/Src/i2cSoft.c **** 	i2cSoft_Stop();
 601:Drivers/SoftI2C/Src/i2cSoft.c **** 	return I2C_RESULT_SUCCESS;
 602:Drivers/SoftI2C/Src/i2cSoft.c **** }
 603:Drivers/SoftI2C/Src/i2cSoft.c **** int i2cSoft_WriteShort ( uint8_t chipAddress, uint16_t addr, uint16_t data )
 604:Drivers/SoftI2C/Src/i2cSoft.c **** {
 605:Drivers/SoftI2C/Src/i2cSoft.c **** 	if ( !i2cSoft_Start() )
 606:Drivers/SoftI2C/Src/i2cSoft.c **** 		return I2C_RESULT_ERROR;
 607:Drivers/SoftI2C/Src/i2cSoft.c **** 
 608:Drivers/SoftI2C/Src/i2cSoft.c **** 	i2cSoft_PutByte( chipAddress );
 609:Drivers/SoftI2C/Src/i2cSoft.c **** 		if ( !i2cSoft_WaitAck() ) 
 610:Drivers/SoftI2C/Src/i2cSoft.c **** 		{
 611:Drivers/SoftI2C/Src/i2cSoft.c **** 			i2cSoft_Stop();
 612:Drivers/SoftI2C/Src/i2cSoft.c **** 			return I2C_RESULT_ERROR;
 613:Drivers/SoftI2C/Src/i2cSoft.c **** 		}
 614:Drivers/SoftI2C/Src/i2cSoft.c **** 	i2cSoft_PutByte( addr >> 8 );
 615:Drivers/SoftI2C/Src/i2cSoft.c **** 		if ( !i2cSoft_WaitAck() ) 
 616:Drivers/SoftI2C/Src/i2cSoft.c **** 		{
ARM GAS  C:\Users\madmax\AppData\Local\Temp\ccD50Og2.s 			page 13


 617:Drivers/SoftI2C/Src/i2cSoft.c **** 			i2cSoft_Stop();
 618:Drivers/SoftI2C/Src/i2cSoft.c **** 			return I2C_RESULT_ERROR;
 619:Drivers/SoftI2C/Src/i2cSoft.c **** 		}
 620:Drivers/SoftI2C/Src/i2cSoft.c **** 	i2cSoft_PutByte( addr & 0xFF );
 621:Drivers/SoftI2C/Src/i2cSoft.c **** 		if ( !i2cSoft_WaitAck() ) 
 622:Drivers/SoftI2C/Src/i2cSoft.c **** 		{
 623:Drivers/SoftI2C/Src/i2cSoft.c **** 			i2cSoft_Stop();
 624:Drivers/SoftI2C/Src/i2cSoft.c **** 			return I2C_RESULT_ERROR;
 625:Drivers/SoftI2C/Src/i2cSoft.c **** 		}
 626:Drivers/SoftI2C/Src/i2cSoft.c **** 	i2cSoft_PutByte( (uint8_t)(data >> 8) );
 627:Drivers/SoftI2C/Src/i2cSoft.c **** 		if ( !i2cSoft_WaitAck() ) 
 628:Drivers/SoftI2C/Src/i2cSoft.c **** 		{
 629:Drivers/SoftI2C/Src/i2cSoft.c **** 			i2cSoft_Stop();
 630:Drivers/SoftI2C/Src/i2cSoft.c **** 			return I2C_RESULT_ERROR;
 631:Drivers/SoftI2C/Src/i2cSoft.c **** 		}
 632:Drivers/SoftI2C/Src/i2cSoft.c **** 	i2cSoft_PutByte( (uint8_t )(data & 0xFF)  );
 633:Drivers/SoftI2C/Src/i2cSoft.c **** 		if ( !i2cSoft_WaitAck() ) 
 634:Drivers/SoftI2C/Src/i2cSoft.c **** 		{
 635:Drivers/SoftI2C/Src/i2cSoft.c **** 			i2cSoft_Stop();
 636:Drivers/SoftI2C/Src/i2cSoft.c **** 			return I2C_RESULT_ERROR;
 637:Drivers/SoftI2C/Src/i2cSoft.c **** 		}
 638:Drivers/SoftI2C/Src/i2cSoft.c **** 
 639:Drivers/SoftI2C/Src/i2cSoft.c **** 
 640:Drivers/SoftI2C/Src/i2cSoft.c **** 	
 641:Drivers/SoftI2C/Src/i2cSoft.c **** 	i2cSoft_Stop();
 642:Drivers/SoftI2C/Src/i2cSoft.c **** 	return I2C_RESULT_SUCCESS;
 643:Drivers/SoftI2C/Src/i2cSoft.c **** }
 644:Drivers/SoftI2C/Src/i2cSoft.c **** 
 645:Drivers/SoftI2C/Src/i2cSoft.c **** 
 646:Drivers/SoftI2C/Src/i2cSoft.c **** int i2cSoft_WriteLong ( uint8_t chipAddress,  uint16_t addr, uint32_t data )
 647:Drivers/SoftI2C/Src/i2cSoft.c **** {
 648:Drivers/SoftI2C/Src/i2cSoft.c **** 	if ( !i2cSoft_Start() )
 649:Drivers/SoftI2C/Src/i2cSoft.c **** 		return I2C_RESULT_ERROR;
 650:Drivers/SoftI2C/Src/i2cSoft.c **** 
 651:Drivers/SoftI2C/Src/i2cSoft.c **** 	i2cSoft_PutByte( chipAddress );
 652:Drivers/SoftI2C/Src/i2cSoft.c **** 	if ( !i2cSoft_WaitAck() ) 
 653:Drivers/SoftI2C/Src/i2cSoft.c **** 	{
 654:Drivers/SoftI2C/Src/i2cSoft.c **** 		i2cSoft_Stop();
 655:Drivers/SoftI2C/Src/i2cSoft.c **** 		return I2C_RESULT_ERROR;
 656:Drivers/SoftI2C/Src/i2cSoft.c **** 	}
 657:Drivers/SoftI2C/Src/i2cSoft.c **** 	i2cSoft_PutByte( addr >> 8 );
 658:Drivers/SoftI2C/Src/i2cSoft.c **** 	if ( !i2cSoft_WaitAck() ) 
 659:Drivers/SoftI2C/Src/i2cSoft.c **** 	{
 660:Drivers/SoftI2C/Src/i2cSoft.c **** 		i2cSoft_Stop();
 661:Drivers/SoftI2C/Src/i2cSoft.c **** 		return I2C_RESULT_ERROR;
 662:Drivers/SoftI2C/Src/i2cSoft.c **** 	}
 663:Drivers/SoftI2C/Src/i2cSoft.c **** 	i2cSoft_PutByte( addr & 0xFF );
 664:Drivers/SoftI2C/Src/i2cSoft.c **** 	if ( !i2cSoft_WaitAck() ) 
 665:Drivers/SoftI2C/Src/i2cSoft.c **** 	{
 666:Drivers/SoftI2C/Src/i2cSoft.c **** 		i2cSoft_Stop();
 667:Drivers/SoftI2C/Src/i2cSoft.c **** 		return I2C_RESULT_ERROR;
 668:Drivers/SoftI2C/Src/i2cSoft.c **** 	}
 669:Drivers/SoftI2C/Src/i2cSoft.c **** 	i2cSoft_PutByte( (uint8_t )(data >> 24) );
 670:Drivers/SoftI2C/Src/i2cSoft.c **** 	if ( !i2cSoft_WaitAck() ) 
 671:Drivers/SoftI2C/Src/i2cSoft.c **** 	{
 672:Drivers/SoftI2C/Src/i2cSoft.c **** 		i2cSoft_Stop();
 673:Drivers/SoftI2C/Src/i2cSoft.c **** 		return I2C_RESULT_ERROR;
ARM GAS  C:\Users\madmax\AppData\Local\Temp\ccD50Og2.s 			page 14


 674:Drivers/SoftI2C/Src/i2cSoft.c **** 	}
 675:Drivers/SoftI2C/Src/i2cSoft.c **** 	i2cSoft_PutByte( (uint8_t )(data >> 16) );
 676:Drivers/SoftI2C/Src/i2cSoft.c **** 	if ( !i2cSoft_WaitAck() ) 
 677:Drivers/SoftI2C/Src/i2cSoft.c **** 	{
 678:Drivers/SoftI2C/Src/i2cSoft.c **** 	i2cSoft_Stop();
 679:Drivers/SoftI2C/Src/i2cSoft.c **** 		return I2C_RESULT_ERROR;
 680:Drivers/SoftI2C/Src/i2cSoft.c **** 	}
 681:Drivers/SoftI2C/Src/i2cSoft.c **** 	i2cSoft_PutByte( (uint8_t )(data >> 8) );
 682:Drivers/SoftI2C/Src/i2cSoft.c **** 	if ( !i2cSoft_WaitAck() ) 
 683:Drivers/SoftI2C/Src/i2cSoft.c **** 	{
 684:Drivers/SoftI2C/Src/i2cSoft.c **** 		i2cSoft_Stop();
 685:Drivers/SoftI2C/Src/i2cSoft.c **** 		return I2C_RESULT_ERROR;
 686:Drivers/SoftI2C/Src/i2cSoft.c **** 	}
 687:Drivers/SoftI2C/Src/i2cSoft.c **** 
 688:Drivers/SoftI2C/Src/i2cSoft.c **** 
 689:Drivers/SoftI2C/Src/i2cSoft.c **** 	i2cSoft_PutByte( (uint8_t ) data & 0xFF );
 690:Drivers/SoftI2C/Src/i2cSoft.c **** 	if ( !i2cSoft_WaitAck() ) 
 691:Drivers/SoftI2C/Src/i2cSoft.c **** 	{
 692:Drivers/SoftI2C/Src/i2cSoft.c **** 		i2cSoft_Stop();
 693:Drivers/SoftI2C/Src/i2cSoft.c **** 		return I2C_RESULT_ERROR;
 694:Drivers/SoftI2C/Src/i2cSoft.c **** 	}
 695:Drivers/SoftI2C/Src/i2cSoft.c **** 
 696:Drivers/SoftI2C/Src/i2cSoft.c **** 
 697:Drivers/SoftI2C/Src/i2cSoft.c **** 
 698:Drivers/SoftI2C/Src/i2cSoft.c **** 	
 699:Drivers/SoftI2C/Src/i2cSoft.c **** 	i2cSoft_Stop();
 700:Drivers/SoftI2C/Src/i2cSoft.c **** 	return I2C_RESULT_SUCCESS;
 701:Drivers/SoftI2C/Src/i2cSoft.c **** }
 702:Drivers/SoftI2C/Src/i2cSoft.c **** 
 703:Drivers/SoftI2C/Src/i2cSoft.c **** //---------------------------–õ–û–ö–ê–õ–¨–ù–´–ï –§–£–ù–ö–¶–ò–ò-------------------------------
 704:Drivers/SoftI2C/Src/i2cSoft.c **** 
 705:Drivers/SoftI2C/Src/i2cSoft.c **** /**
 706:Drivers/SoftI2C/Src/i2cSoft.c ****  *	@brief	–†–µ–∞–ª–∏–∑–∞—Ü–∏—è –ø—Ä–æ—Å—Ç–æ–π –∑–∞–¥–µ—Ä–∂–∫–∏
 707:Drivers/SoftI2C/Src/i2cSoft.c ****  *	@param	void
 708:Drivers/SoftI2C/Src/i2cSoft.c ****  *	@return	void
 709:Drivers/SoftI2C/Src/i2cSoft.c ****  */
 710:Drivers/SoftI2C/Src/i2cSoft.c **** 
 711:Drivers/SoftI2C/Src/i2cSoft.c **** 
 712:Drivers/SoftI2C/Src/i2cSoft.c **** /**
 713:Drivers/SoftI2C/Src/i2cSoft.c ****  *	@brief	–û—Ç–ø—Ä–∞–≤–∫–∞ –ø–æ—Å–ª–µ–¥–æ–≤–∞—Ç–µ–ª—å–Ω–æ—Å—Ç–∏ –°–¢–ê–†–¢ –≤ —à–∏–Ω—É
 714:Drivers/SoftI2C/Src/i2cSoft.c ****  *	@param	void
 715:Drivers/SoftI2C/Src/i2cSoft.c ****  *	@return	bool - —Ä–µ–∑—É–ª—å—Ç–∞—Ç –≤—ã–ø–æ–ª–Ω–µ–Ω–∏—è —Ñ—É–Ω–∫—Ü–∏–∏:
 716:Drivers/SoftI2C/Src/i2cSoft.c ****  *			true –≤ —Å–ª—É—á–∞–µ —É—Å–ø–µ—Ö–∞
 717:Drivers/SoftI2C/Src/i2cSoft.c ****  *			false –≤ —Å–ª—É—á–∞–µ –æ—à–∏–±–∫–∏
 718:Drivers/SoftI2C/Src/i2cSoft.c ****  */
 719:Drivers/SoftI2C/Src/i2cSoft.c **** static bool i2cSoft_Start ()
 720:Drivers/SoftI2C/Src/i2cSoft.c **** {
 721:Drivers/SoftI2C/Src/i2cSoft.c **** 		/*
 722:Drivers/SoftI2C/Src/i2cSoft.c **** 	while(!(SDAread))
 723:Drivers/SoftI2C/Src/i2cSoft.c **** 	{
 724:Drivers/SoftI2C/Src/i2cSoft.c **** 		SCLL;
 725:Drivers/SoftI2C/Src/i2cSoft.c **** 		i2cSoft_Delay();
 726:Drivers/SoftI2C/Src/i2cSoft.c **** 		SCLhigh();
 727:Drivers/SoftI2C/Src/i2cSoft.c **** 		i2cSoft_Delay();
 728:Drivers/SoftI2C/Src/i2cSoft.c **** 	}
 729:Drivers/SoftI2C/Src/i2cSoft.c **** 	SDAL;
 730:Drivers/SoftI2C/Src/i2cSoft.c **** 	i2cSoft_Delay();
ARM GAS  C:\Users\madmax\AppData\Local\Temp\ccD50Og2.s 			page 15


 731:Drivers/SoftI2C/Src/i2cSoft.c **** 	SCLL;
 732:Drivers/SoftI2C/Src/i2cSoft.c **** 	i2cSoft_Delay();
 733:Drivers/SoftI2C/Src/i2cSoft.c **** 	*/
 734:Drivers/SoftI2C/Src/i2cSoft.c **** 
 735:Drivers/SoftI2C/Src/i2cSoft.c **** 	SDAH;						// –æ—Ç–ø—É—Å—Ç–∏—Ç—å –æ–±–µ –ª–∏–Ω–∏–∏, –Ω–∞ —Å–ª—É—á–∞–π
 736:Drivers/SoftI2C/Src/i2cSoft.c **** 	SCLhigh();						// –Ω–∞ —Å–ª—É—á–∞–π, –µ—Å–ª–∏ –æ–Ω–∏ –±—ã–ª–∏ –ø—Ä–∏–∂–∞—Ç—ã
 737:Drivers/SoftI2C/Src/i2cSoft.c **** 
 738:Drivers/SoftI2C/Src/i2cSoft.c **** 
 739:Drivers/SoftI2C/Src/i2cSoft.c **** 	i2cSoft_Delay();
 740:Drivers/SoftI2C/Src/i2cSoft.c **** 	if ( !(SDAread) )			// –µ—Å–ª–∏ –ª–∏–Ω–∏—è SDA –ø—Ä–∏–∂–∞—Ç–∞ —Å–ª–µ–π–≤–æ–º,
 741:Drivers/SoftI2C/Src/i2cSoft.c **** 		return 0;			// —Ç–æ —Å—Ñ–æ—Ä–º–∏—Ä–æ–≤–∞—Ç—å —Å—Ç–∞—Ä—Ç –Ω–µ–≤–æ–∑–º–æ–∂–Ω–æ, –≤—ã—Ö–æ–¥ —Å –æ—à–
 742:Drivers/SoftI2C/Src/i2cSoft.c **** 	SDAL;						// –ø—Ä–∏–∂–∏–º–∞–µ–º SDA –∫ –∑–µ–º–ª–µ
 743:Drivers/SoftI2C/Src/i2cSoft.c **** 	i2cSoft_Delay();
 744:Drivers/SoftI2C/Src/i2cSoft.c **** 	if ( SDAread )				// –µ—Å–ª–∏ –Ω–µ –ø—Ä–∏–∂–∞–ª–∞—Å—å, —Ç–æ —à–∏–Ω–∞ –Ω–µ–∏—Å–ø—Ä–∞–≤–Ω–∞
 745:Drivers/SoftI2C/Src/i2cSoft.c **** 		return 0;			// –≤—ã—Ö–æ–¥ —Å –æ—à–∏–±–∫–æ–π
 746:Drivers/SoftI2C/Src/i2cSoft.c **** 	SCLL;	
 747:Drivers/SoftI2C/Src/i2cSoft.c **** 	i2cSoft_Delay();
 748:Drivers/SoftI2C/Src/i2cSoft.c **** 	return 1;				// —Å—Ç–∞—Ä—Ç —É—Å–ø–µ—à–Ω–æ —Å—Ñ–æ—Ä–º–∏—Ä–æ–≤–∞–Ω
 749:Drivers/SoftI2C/Src/i2cSoft.c **** }
 750:Drivers/SoftI2C/Src/i2cSoft.c **** 
 751:Drivers/SoftI2C/Src/i2cSoft.c **** /**
 752:Drivers/SoftI2C/Src/i2cSoft.c ****  *	@brief	–û—Ç–ø—Ä–∞–≤–∫–∞ –ø–æ—Å–ª–µ–¥–æ–≤–∞—Ç–µ–ª—å–Ω–æ—Å—Ç–∏ –°–¢–û–ü –≤ —à–∏–Ω—É
 753:Drivers/SoftI2C/Src/i2cSoft.c ****  *	@param	void
 754:Drivers/SoftI2C/Src/i2cSoft.c ****  *	@return	bool - —Ä–µ–∑—É–ª—å—Ç–∞—Ç –≤—ã–ø–æ–ª–Ω–µ–Ω–∏—è —Ñ—É–Ω–∫—Ü–∏–∏:
 755:Drivers/SoftI2C/Src/i2cSoft.c ****  *			true –≤ —Å–ª—É—á–∞–µ —É—Å–ø–µ—Ö–∞
 756:Drivers/SoftI2C/Src/i2cSoft.c ****  *			false –≤ —Å–ª—É—á–∞–µ –æ—à–∏–±–∫–∏
 757:Drivers/SoftI2C/Src/i2cSoft.c ****  */
 758:Drivers/SoftI2C/Src/i2cSoft.c **** static void i2cSoft_Stop ()
 759:Drivers/SoftI2C/Src/i2cSoft.c **** {
 760:Drivers/SoftI2C/Src/i2cSoft.c **** 
 761:Drivers/SoftI2C/Src/i2cSoft.c **** 	SCLL;						// –ø–æ—Å–ª–µ–¥–æ–≤–∞—Ç–µ–ª—å–Ω–æ—Å—Ç—å –¥–ª—è —Ñ–æ—Ä–º–∏—Ä–æ–≤–∞–Ω–∏—è –°—Ç–æ–ø–∞
 762:Drivers/SoftI2C/Src/i2cSoft.c **** 	i2cSoft_Delay();
 763:Drivers/SoftI2C/Src/i2cSoft.c **** 	SDAL;
 764:Drivers/SoftI2C/Src/i2cSoft.c **** 	i2cSoft_Delay();
 765:Drivers/SoftI2C/Src/i2cSoft.c **** 	SCLhigh();
 766:Drivers/SoftI2C/Src/i2cSoft.c **** 	i2cSoft_Delay();
 767:Drivers/SoftI2C/Src/i2cSoft.c **** 	SDAH;
 768:Drivers/SoftI2C/Src/i2cSoft.c **** 	i2cSoft_Delay();
 769:Drivers/SoftI2C/Src/i2cSoft.c **** }
 770:Drivers/SoftI2C/Src/i2cSoft.c **** 
 771:Drivers/SoftI2C/Src/i2cSoft.c **** /**
 772:Drivers/SoftI2C/Src/i2cSoft.c ****  *	@brief	–û—Ç–ø—Ä–∞–≤–∫–∞ –ø–æ—Å–ª–µ–¥–æ–≤–∞—Ç–µ–ª—å–Ω–æ—Å—Ç–∏ ACK –≤ —à–∏–Ω—É
 773:Drivers/SoftI2C/Src/i2cSoft.c ****  *	@param	void
 774:Drivers/SoftI2C/Src/i2cSoft.c ****  *	@return	void
 775:Drivers/SoftI2C/Src/i2cSoft.c ****  */
 776:Drivers/SoftI2C/Src/i2cSoft.c **** 
 777:Drivers/SoftI2C/Src/i2cSoft.c **** static void i2cSoft_Ack ()
 778:Drivers/SoftI2C/Src/i2cSoft.c **** {
 779:Drivers/SoftI2C/Src/i2cSoft.c **** 
 780:Drivers/SoftI2C/Src/i2cSoft.c **** 	SCLL;
 781:Drivers/SoftI2C/Src/i2cSoft.c **** 	i2cSoft_Delay();
 782:Drivers/SoftI2C/Src/i2cSoft.c **** 	SDAL;						// –ø—Ä–∏–∂–∏–º–∞–µ–º –ª–∏–Ω–∏—é SDA –∫ –∑–µ–º–ª–µ
 783:Drivers/SoftI2C/Src/i2cSoft.c **** 	i2cSoft_Delay();
 784:Drivers/SoftI2C/Src/i2cSoft.c **** 	SCLhigh();						// –∏ –¥–µ–ª–∞–µ–º –æ–¥–∏–Ω –∫–ª–∏–∫ –ª–∏–Ω–∏–µ–º SCL
 785:Drivers/SoftI2C/Src/i2cSoft.c **** 	i2cSoft_Delay();
 786:Drivers/SoftI2C/Src/i2cSoft.c **** 	SCLL;
 787:Drivers/SoftI2C/Src/i2cSoft.c **** 	i2cSoft_Delay();
ARM GAS  C:\Users\madmax\AppData\Local\Temp\ccD50Og2.s 			page 16


 788:Drivers/SoftI2C/Src/i2cSoft.c **** }
 789:Drivers/SoftI2C/Src/i2cSoft.c **** 
 790:Drivers/SoftI2C/Src/i2cSoft.c **** /**
 791:Drivers/SoftI2C/Src/i2cSoft.c ****  *	@brief	–û—Ç–ø—Ä–∞–≤–∫–∞ –ø–æ—Å–ª–µ–¥–æ–≤–∞—Ç–µ–ª—å–Ω–æ—Å—Ç–∏ NO ACK –≤ —à–∏–Ω—É
 792:Drivers/SoftI2C/Src/i2cSoft.c ****  *	@param	void
 793:Drivers/SoftI2C/Src/i2cSoft.c ****  *	@return	void
 794:Drivers/SoftI2C/Src/i2cSoft.c ****  */
 795:Drivers/SoftI2C/Src/i2cSoft.c **** static void i2cSoft_NoAck ()	//
 796:Drivers/SoftI2C/Src/i2cSoft.c **** {
 797:Drivers/SoftI2C/Src/i2cSoft.c **** 
 798:Drivers/SoftI2C/Src/i2cSoft.c **** 	SCLL;
 799:Drivers/SoftI2C/Src/i2cSoft.c **** 	i2cSoft_Delay();
 800:Drivers/SoftI2C/Src/i2cSoft.c **** 	SDAH;						// –æ—Ç–ø—É—Å–∫–∞–µ–º –ª–∏–Ω–∏—é SDA
 801:Drivers/SoftI2C/Src/i2cSoft.c **** 	i2cSoft_Delay();
 802:Drivers/SoftI2C/Src/i2cSoft.c **** 	SCLhigh();						// –∏ –¥–µ–ª–∞–µ–º –æ–¥–∏–Ω –∫–ª–∏–∫ –ª–∏–Ω–∏–µ–º SCL
 803:Drivers/SoftI2C/Src/i2cSoft.c **** 	i2cSoft_Delay();
 804:Drivers/SoftI2C/Src/i2cSoft.c **** 	i2cSoft_Delay();
 805:Drivers/SoftI2C/Src/i2cSoft.c **** 	SCLL;
 806:Drivers/SoftI2C/Src/i2cSoft.c **** //	i2cSoft_Delay();
 807:Drivers/SoftI2C/Src/i2cSoft.c **** }
 808:Drivers/SoftI2C/Src/i2cSoft.c **** 
 809:Drivers/SoftI2C/Src/i2cSoft.c **** /**
 810:Drivers/SoftI2C/Src/i2cSoft.c ****  *	@brief	–ü—Ä–æ–≤–µ—Ä–∫–∞ —à–∏–Ω—ã –Ω–∞ –Ω–∞–ª–∏—á–∏–µ ACK –æ—Ç —Å–ª–µ–π–≤–∞
 811:Drivers/SoftI2C/Src/i2cSoft.c ****  *	@param	void
 812:Drivers/SoftI2C/Src/i2cSoft.c ****  *	@return	bool - —Ä–µ–∑—É–ª—å—Ç–∞—Ç –≤—ã–ø–æ–ª–Ω–µ–Ω–∏—è —Ñ—É–Ω–∫—Ü–∏–∏:
 813:Drivers/SoftI2C/Src/i2cSoft.c ****  *			true  - –µ—Å–ª–∏ ACK –ø–æ–ª—É—á–µ–Ω
 814:Drivers/SoftI2C/Src/i2cSoft.c ****  *			false - –µ—Å–ª–∏ ACK –ù–ï –ø–æ–ª—É—á–µ–Ω
 815:Drivers/SoftI2C/Src/i2cSoft.c ****  */
 816:Drivers/SoftI2C/Src/i2cSoft.c **** static bool i2cSoft_WaitAck ()
 817:Drivers/SoftI2C/Src/i2cSoft.c **** {
 818:Drivers/SoftI2C/Src/i2cSoft.c **** 
 819:Drivers/SoftI2C/Src/i2cSoft.c **** 	SCLL;
 820:Drivers/SoftI2C/Src/i2cSoft.c **** 	i2cSoft_Delay();
 821:Drivers/SoftI2C/Src/i2cSoft.c **** 	SDAH;
 822:Drivers/SoftI2C/Src/i2cSoft.c **** 	i2cSoft_Delay();
 823:Drivers/SoftI2C/Src/i2cSoft.c **** 	SCLhigh();						// –¥–µ–ª–∞–µ–º –ø–æ–ª–æ–≤–∏–Ω—É –∫–ª–∏–∫–∞ –ª–∏–Ω–∏–µ–π SCL
 824:Drivers/SoftI2C/Src/i2cSoft.c **** 	i2cSoft_Delay();
 825:Drivers/SoftI2C/Src/i2cSoft.c **** 	i2cSoft_Delay();
 826:Drivers/SoftI2C/Src/i2cSoft.c **** 	if ( SDAread ) {			// –∏ –ø—Ä–æ–≤–µ—Ä—è–µ–º, –ø—Ä–∏–∂–∞–ª –ª–∏ —Å–ª–µ–π–≤ –ª–∏–Ω–∏—é SDA
 827:Drivers/SoftI2C/Src/i2cSoft.c **** 		SCLL;
 828:Drivers/SoftI2C/Src/i2cSoft.c **** 		return 0;
 829:Drivers/SoftI2C/Src/i2cSoft.c **** 	}
 830:Drivers/SoftI2C/Src/i2cSoft.c **** 	SCLL;						// –∑–∞–≤–µ—Ä—à–∞–µ–º –∫–ª–∏–∫ –ª–∏–Ω–∏–µ–π SCL
 831:Drivers/SoftI2C/Src/i2cSoft.c **** 	return 1;
 832:Drivers/SoftI2C/Src/i2cSoft.c **** }
 833:Drivers/SoftI2C/Src/i2cSoft.c **** 
 834:Drivers/SoftI2C/Src/i2cSoft.c **** /**
 835:Drivers/SoftI2C/Src/i2cSoft.c ****  *	@brief	–û—Ç–ø—Ä–∞–≤–∫–∞ –æ–¥–Ω–æ–≥–æ –±–∞–π—Ç–∞ data –≤ —à–∏–Ω—É
 836:Drivers/SoftI2C/Src/i2cSoft.c ****  *	@param	uint8_t data - –±–∞–π—Ç –¥–∞–Ω–Ω—ã—Ö –¥–ª—è –æ—Ç–ø—Ä–∞–≤–∫–∏
 837:Drivers/SoftI2C/Src/i2cSoft.c ****  *	@return	void
 838:Drivers/SoftI2C/Src/i2cSoft.c ****  */
 839:Drivers/SoftI2C/Src/i2cSoft.c **** static void i2cSoft_PutByte ( uint8_t data )
 840:Drivers/SoftI2C/Src/i2cSoft.c **** {
  72              		.loc 1 840 1 is_stmt 1 view -0
  73              		.cfi_startproc
  74              		@ args = 0, pretend = 0, frame = 0
  75              		@ frame_needed = 0, uses_anonymous_args = 0
ARM GAS  C:\Users\madmax\AppData\Local\Temp\ccD50Og2.s 			page 17


  76              		.loc 1 840 1 is_stmt 0 view .LVU10
  77 0000 38B5     		push	{r3, r4, r5, lr}
  78              	.LCFI2:
  79              		.cfi_def_cfa_offset 16
  80              		.cfi_offset 3, -16
  81              		.cfi_offset 4, -12
  82              		.cfi_offset 5, -8
  83              		.cfi_offset 14, -4
  84 0002 0446     		mov	r4, r0
 841:Drivers/SoftI2C/Src/i2cSoft.c **** 
 842:Drivers/SoftI2C/Src/i2cSoft.c **** 	
 843:Drivers/SoftI2C/Src/i2cSoft.c **** 	uint8_t i = 8;				// –Ω—É–∂–Ω–æ –æ—Ç–ø—Ä–∞–≤–∏—Ç—å 8 –±–∏—Ç –¥–∞–Ω–Ω—ã—Ö
  85              		.loc 1 843 2 is_stmt 1 view .LVU11
  86              	.LVL1:
 844:Drivers/SoftI2C/Src/i2cSoft.c **** 	while ( i-- ) {				// –ø–æ–∫–∞ –Ω–µ –æ—Ç–ø—Ä–∞–≤–∏–ª–∏ –≤—Å–µ –±–∏—Ç—ã
  87              		.loc 1 844 2 view .LVU12
 843:Drivers/SoftI2C/Src/i2cSoft.c **** 	while ( i-- ) {				// –ø–æ–∫–∞ –Ω–µ –æ—Ç–ø—Ä–∞–≤–∏–ª–∏ –≤—Å–µ –±–∏—Ç—ã
  88              		.loc 1 843 10 is_stmt 0 view .LVU13
  89 0004 0823     		movs	r3, #8
  90              		.loc 1 844 8 view .LVU14
  91 0006 0EE0     		b	.L7
  92              	.LVL2:
  93              	.L13:
 845:Drivers/SoftI2C/Src/i2cSoft.c **** 		SCLL;					// –ø—Ä–∏–∂–∏–º–∞–µ–º –ª–∏–Ω–∏—é SCL –∫ –∑–µ–º–ª–µ
 846:Drivers/SoftI2C/Src/i2cSoft.c **** 		i2cSoft_Delay();
 847:Drivers/SoftI2C/Src/i2cSoft.c **** 		if ( data & 0x80 )		// –∏ –≤—ã—Å—Ç–∞–≤–ª—è–µ–º –Ω–∞ –ª–∏–Ω–∏–∏ SDA –Ω—É–∂–Ω—ã–π —É—Ä–æ–≤–µ–Ω—å
 848:Drivers/SoftI2C/Src/i2cSoft.c **** 			SDAH;
  94              		.loc 1 848 4 is_stmt 1 view .LVU15
  95 0008 104B     		ldr	r3, .L14
  96 000a 1022     		movs	r2, #16
  97 000c 1A61     		str	r2, [r3, #16]
  98              	.L9:
 849:Drivers/SoftI2C/Src/i2cSoft.c **** 		else
 850:Drivers/SoftI2C/Src/i2cSoft.c **** 			SDAL;
 851:Drivers/SoftI2C/Src/i2cSoft.c **** 		data <<= 1;
  99              		.loc 1 851 3 view .LVU16
 100              		.loc 1 851 8 is_stmt 0 view .LVU17
 101 000e 6400     		lsls	r4, r4, #1
 102              	.LVL3:
 103              		.loc 1 851 8 view .LVU18
 104 0010 E4B2     		uxtb	r4, r4
 105              	.LVL4:
 852:Drivers/SoftI2C/Src/i2cSoft.c **** 		i2cSoft_Delay();
 106              		.loc 1 852 3 is_stmt 1 view .LVU19
 107 0012 FFF7FEFF 		bl	i2cSoft_Delay
 108              	.LVL5:
 853:Drivers/SoftI2C/Src/i2cSoft.c **** 		SCLH;
 109              		.loc 1 853 3 view .LVU20
 110 0016 0D4B     		ldr	r3, .L14
 111 0018 2022     		movs	r2, #32
 112 001a 1A61     		str	r2, [r3, #16]
 854:Drivers/SoftI2C/Src/i2cSoft.c **** 		//SCLhigh();					// –æ—Ç–ø—É—Å–∫–∞–µ–º –ª–∏–Ω–∏—é SCL
 855:Drivers/SoftI2C/Src/i2cSoft.c **** 		i2cSoft_Delay();		// –ø–æ—Å–ª–µ —ç—Ç–æ–≥–æ —Å–ª–µ–π–≤ —Å—Ä–∞–∑—É –∂–µ –ø—Ä–æ—á–∏—Ç–∞–µ—Ç –∑–Ω–∞—á
 113              		.loc 1 855 3 view .LVU21
 114 001c FFF7FEFF 		bl	i2cSoft_Delay
 115              	.LVL6:
 856:Drivers/SoftI2C/Src/i2cSoft.c **** 		i2cSoft_Delay();
ARM GAS  C:\Users\madmax\AppData\Local\Temp\ccD50Og2.s 			page 18


 116              		.loc 1 856 3 view .LVU22
 117 0020 FFF7FEFF 		bl	i2cSoft_Delay
 118              	.LVL7:
 844:Drivers/SoftI2C/Src/i2cSoft.c **** 		SCLL;					// –ø—Ä–∏–∂–∏–º–∞–µ–º –ª–∏–Ω–∏—é SCL –∫ –∑–µ–º–ª–µ
 119              		.loc 1 844 11 is_stmt 0 view .LVU23
 120 0024 2B46     		mov	r3, r5
 121              	.LVL8:
 122              	.L7:
 844:Drivers/SoftI2C/Src/i2cSoft.c **** 		SCLL;					// –ø—Ä–∏–∂–∏–º–∞–µ–º –ª–∏–Ω–∏—é SCL –∫ –∑–µ–º–ª–µ
 123              		.loc 1 844 11 view .LVU24
 124 0026 5A1E     		subs	r2, r3, #1
 125 0028 D5B2     		uxtb	r5, r2
 126              	.LVL9:
 844:Drivers/SoftI2C/Src/i2cSoft.c **** 		SCLL;					// –ø—Ä–∏–∂–∏–º–∞–µ–º –ª–∏–Ω–∏—é SCL –∫ –∑–µ–º–ª–µ
 127              		.loc 1 844 8 view .LVU25
 128 002a 5BB1     		cbz	r3, .L12
 845:Drivers/SoftI2C/Src/i2cSoft.c **** 		i2cSoft_Delay();
 129              		.loc 1 845 3 is_stmt 1 view .LVU26
 130 002c 074B     		ldr	r3, .L14
 131 002e 2022     		movs	r2, #32
 132 0030 5A61     		str	r2, [r3, #20]
 846:Drivers/SoftI2C/Src/i2cSoft.c **** 		if ( data & 0x80 )		// –∏ –≤—ã—Å—Ç–∞–≤–ª—è–µ–º –Ω–∞ –ª–∏–Ω–∏–∏ SDA –Ω—É–∂–Ω—ã–π —É—Ä–æ–≤–µ–Ω—å
 133              		.loc 1 846 3 view .LVU27
 134 0032 FFF7FEFF 		bl	i2cSoft_Delay
 135              	.LVL10:
 847:Drivers/SoftI2C/Src/i2cSoft.c **** 			SDAH;
 136              		.loc 1 847 3 view .LVU28
 847:Drivers/SoftI2C/Src/i2cSoft.c **** 			SDAH;
 137              		.loc 1 847 6 is_stmt 0 view .LVU29
 138 0036 14F0800F 		tst	r4, #128
 139 003a E5D1     		bne	.L13
 850:Drivers/SoftI2C/Src/i2cSoft.c **** 		data <<= 1;
 140              		.loc 1 850 4 is_stmt 1 view .LVU30
 141 003c 034B     		ldr	r3, .L14
 142 003e 1022     		movs	r2, #16
 143 0040 5A61     		str	r2, [r3, #20]
 144 0042 E4E7     		b	.L9
 145              	.L12:
 857:Drivers/SoftI2C/Src/i2cSoft.c **** 	}
 858:Drivers/SoftI2C/Src/i2cSoft.c **** 	SCLL;
 146              		.loc 1 858 2 view .LVU31
 147 0044 014B     		ldr	r3, .L14
 148 0046 2022     		movs	r2, #32
 149 0048 5A61     		str	r2, [r3, #20]
 859:Drivers/SoftI2C/Src/i2cSoft.c **** }
 150              		.loc 1 859 1 is_stmt 0 view .LVU32
 151 004a 38BD     		pop	{r3, r4, r5, pc}
 152              	.LVL11:
 153              	.L15:
 154              		.loc 1 859 1 view .LVU33
 155              		.align	2
 156              	.L14:
 157 004c 000C0140 		.word	1073810432
 158              		.cfi_endproc
 159              	.LFE89:
 161              		.section	.text.SCLhigh,"ax",%progbits
 162              		.align	1
ARM GAS  C:\Users\madmax\AppData\Local\Temp\ccD50Og2.s 			page 19


 163              		.syntax unified
 164              		.thumb
 165              		.thumb_func
 166              		.fpu softvfp
 168              	SCLhigh:
 169              	.LFB91:
 860:Drivers/SoftI2C/Src/i2cSoft.c **** /**
 861:Drivers/SoftI2C/Src/i2cSoft.c ****  *	@brief	–ß—Ç–µ–Ω–∏–µ –æ–¥–Ω–æ–≥–æ –±–∞–π—Ç–∞ data –∏–∑ —à–∏–Ω—ã
 862:Drivers/SoftI2C/Src/i2cSoft.c ****  *	@param	void
 863:Drivers/SoftI2C/Src/i2cSoft.c ****  *	@return	uint8_t - –ø—Ä–æ—á–∏—Ç–∞–Ω–Ω—ã–π –±–∞–π—Ç
 864:Drivers/SoftI2C/Src/i2cSoft.c ****  */
 865:Drivers/SoftI2C/Src/i2cSoft.c **** static uint8_t i2cSoft_GetByte ()
 866:Drivers/SoftI2C/Src/i2cSoft.c **** {
 867:Drivers/SoftI2C/Src/i2cSoft.c **** 	volatile uint8_t i = 8;		// –Ω—É–∂–Ω–æ –æ—Ç–ø—Ä–∞–≤–∏—Ç—å 8 –±–∏—Ç –¥–∞–Ω–Ω—ã—Ö
 868:Drivers/SoftI2C/Src/i2cSoft.c **** 	uint8_t data = 0;
 869:Drivers/SoftI2C/Src/i2cSoft.c **** 
 870:Drivers/SoftI2C/Src/i2cSoft.c **** 	SDAH;						// –æ—Ç–ø—É—Å–∫–∞–µ–º –ª–∏–Ω–∏—é SDA. —É–ø—Ä–∞–≤–ª—è—Ç—å –µ–π –±—É–¥–µ—Ç —Å–ª–µ–π–≤
 871:Drivers/SoftI2C/Src/i2cSoft.c **** 
 872:Drivers/SoftI2C/Src/i2cSoft.c **** 	while ( i-- ) {				// –ø–æ–∫–∞ –Ω–µ –ø–æ–ª—É—á–∏–ª–∏ –≤—Å–µ –±–∏—Ç—ã
 873:Drivers/SoftI2C/Src/i2cSoft.c **** 		data <<= 1;
 874:Drivers/SoftI2C/Src/i2cSoft.c **** 		SCLL;					// –¥–µ–ª–∞–µ–º –∫–ª–∏–∫ –ª–∏–Ω–∏–µ–π SCL
 875:Drivers/SoftI2C/Src/i2cSoft.c **** 		i2cSoft_Delay();
 876:Drivers/SoftI2C/Src/i2cSoft.c **** 		//SCLH;
 877:Drivers/SoftI2C/Src/i2cSoft.c **** 		SCLhigh();
 878:Drivers/SoftI2C/Src/i2cSoft.c **** 		i2cSoft_Delay();
 879:Drivers/SoftI2C/Src/i2cSoft.c **** 		if ( SDAread ) {		// —á–∏—Ç–∞–µ–º –∑–Ω–∞—á–µ–Ω–∏–µ –Ω–∞ –ª–∏–Ω–∏–∏ SDA
 880:Drivers/SoftI2C/Src/i2cSoft.c **** 			data |= 0x01;
 881:Drivers/SoftI2C/Src/i2cSoft.c **** 		}
 882:Drivers/SoftI2C/Src/i2cSoft.c **** 	}
 883:Drivers/SoftI2C/Src/i2cSoft.c **** 	SCLL;
 884:Drivers/SoftI2C/Src/i2cSoft.c **** 	return data;				// –≤–æ–∑–≤—Ä–∞—â–∞–µ–º –ø—Ä–æ—á–∏—Ç–∞–Ω–Ω–æ–µ –∑–Ω–∞—á–µ–Ω–∏–µ
 885:Drivers/SoftI2C/Src/i2cSoft.c **** }
 886:Drivers/SoftI2C/Src/i2cSoft.c **** 
 887:Drivers/SoftI2C/Src/i2cSoft.c **** static void SCLhigh ()
 888:Drivers/SoftI2C/Src/i2cSoft.c **** {
 170              		.loc 1 888 1 is_stmt 1 view -0
 171              		.cfi_startproc
 172              		@ args = 0, pretend = 0, frame = 0
 173              		@ frame_needed = 0, uses_anonymous_args = 0
 174              		@ link register save eliminated.
 889:Drivers/SoftI2C/Src/i2cSoft.c **** 	while(~SCLread)
 175              		.loc 1 889 2 view .LVU35
 176              	.L17:
 177              		.loc 1 889 9 is_stmt 0 view .LVU36
 178 0000 044B     		ldr	r3, .L20
 179 0002 9B68     		ldr	r3, [r3, #8]
 180              		.loc 1 889 7 view .LVU37
 181 0004 13F0200F 		tst	r3, #32
 182 0008 03D1     		bne	.L19
 890:Drivers/SoftI2C/Src/i2cSoft.c **** 	SCLH;
 183              		.loc 1 890 2 is_stmt 1 view .LVU38
 184 000a 024B     		ldr	r3, .L20
 185 000c 2022     		movs	r2, #32
 186 000e 1A61     		str	r2, [r3, #16]
 187 0010 F6E7     		b	.L17
 188              	.L19:
 891:Drivers/SoftI2C/Src/i2cSoft.c **** }...
ARM GAS  C:\Users\madmax\AppData\Local\Temp\ccD50Og2.s 			page 20


 189              		.loc 1 891 1 is_stmt 0 view .LVU39
 190 0012 7047     		bx	lr
 191              	.L21:
 192              		.align	2
 193              	.L20:
 194 0014 000C0140 		.word	1073810432
 195              		.cfi_endproc
 196              	.LFE91:
 198              		.section	.text.i2cSoft_Start,"ax",%progbits
 199              		.align	1
 200              		.syntax unified
 201              		.thumb
 202              		.thumb_func
 203              		.fpu softvfp
 205              	i2cSoft_Start:
 206              	.LFB84:
 720:Drivers/SoftI2C/Src/i2cSoft.c **** {
 207              		.loc 1 720 1 is_stmt 1 view -0
 208              		.cfi_startproc
 209              		@ args = 0, pretend = 0, frame = 0
 210              		@ frame_needed = 0, uses_anonymous_args = 0
 211 0000 10B5     		push	{r4, lr}
 212              	.LCFI3:
 213              		.cfi_def_cfa_offset 8
 214              		.cfi_offset 4, -8
 215              		.cfi_offset 14, -4
 735:Drivers/SoftI2C/Src/i2cSoft.c **** 	SDAH;						// –æ—Ç–ø—É—Å—Ç–∏—Ç—å –æ–±–µ –ª–∏–Ω–∏–∏, –Ω–∞ —Å–ª—É—á–∞–π
 216              		.loc 1 735 2 view .LVU41
 217 0002 0E4C     		ldr	r4, .L29
 218 0004 1023     		movs	r3, #16
 219 0006 2361     		str	r3, [r4, #16]
 736:Drivers/SoftI2C/Src/i2cSoft.c **** 	SCLhigh();						// –Ω–∞ —Å–ª—É—á–∞–π, –µ—Å–ª–∏ –æ–Ω–∏ –±—ã–ª–∏ –ø—Ä–∏–∂–∞—Ç—ã
 220              		.loc 1 736 2 view .LVU42
 221 0008 FFF7FEFF 		bl	SCLhigh
 222              	.LVL12:
 739:Drivers/SoftI2C/Src/i2cSoft.c **** 	i2cSoft_Delay();
 223              		.loc 1 739 2 view .LVU43
 224 000c FFF7FEFF 		bl	i2cSoft_Delay
 225              	.LVL13:
 740:Drivers/SoftI2C/Src/i2cSoft.c **** 	if ( !(SDAread) )			// –µ—Å–ª–∏ –ª–∏–Ω–∏—è SDA –ø—Ä–∏–∂–∞—Ç–∞ —Å–ª–µ–π–≤–æ–º,
 226              		.loc 1 740 2 view .LVU44
 740:Drivers/SoftI2C/Src/i2cSoft.c **** 	if ( !(SDAread) )			// –µ—Å–ª–∏ –ª–∏–Ω–∏—è SDA –ø—Ä–∏–∂–∞—Ç–∞ —Å–ª–µ–π–≤–æ–º,
 227              		.loc 1 740 9 is_stmt 0 view .LVU45
 228 0010 A368     		ldr	r3, [r4, #8]
 740:Drivers/SoftI2C/Src/i2cSoft.c **** 	if ( !(SDAread) )			// –µ—Å–ª–∏ –ª–∏–Ω–∏—è SDA –ø—Ä–∏–∂–∞—Ç–∞ —Å–ª–µ–π–≤–æ–º,
 229              		.loc 1 740 5 view .LVU46
 230 0012 13F0100F 		tst	r3, #16
 231 0016 01D1     		bne	.L27
 741:Drivers/SoftI2C/Src/i2cSoft.c **** 		return 0;			// —Ç–æ —Å—Ñ–æ—Ä–º–∏—Ä–æ–≤–∞—Ç—å —Å—Ç–∞—Ä—Ç –Ω–µ–≤–æ–∑–º–æ–∂–Ω–æ, –≤—ã—Ö–æ–¥ —Å –æ—à–
 232              		.loc 1 741 10 view .LVU47
 233 0018 0020     		movs	r0, #0
 234              	.L23:
 749:Drivers/SoftI2C/Src/i2cSoft.c **** }
 235              		.loc 1 749 1 view .LVU48
 236 001a 10BD     		pop	{r4, pc}
 237              	.L27:
 742:Drivers/SoftI2C/Src/i2cSoft.c **** 	SDAL;						// –ø—Ä–∏–∂–∏–º–∞–µ–º SDA –∫ –∑–µ–º–ª–µ
ARM GAS  C:\Users\madmax\AppData\Local\Temp\ccD50Og2.s 			page 21


 238              		.loc 1 742 2 is_stmt 1 view .LVU49
 239 001c 1023     		movs	r3, #16
 240 001e 6361     		str	r3, [r4, #20]
 743:Drivers/SoftI2C/Src/i2cSoft.c **** 	i2cSoft_Delay();
 241              		.loc 1 743 2 view .LVU50
 242 0020 FFF7FEFF 		bl	i2cSoft_Delay
 243              	.LVL14:
 744:Drivers/SoftI2C/Src/i2cSoft.c **** 	if ( SDAread )				// –µ—Å–ª–∏ –Ω–µ –ø—Ä–∏–∂–∞–ª–∞—Å—å, —Ç–æ —à–∏–Ω–∞ –Ω–µ–∏—Å–ø—Ä–∞–≤–Ω–∞
 244              		.loc 1 744 2 view .LVU51
 744:Drivers/SoftI2C/Src/i2cSoft.c **** 	if ( SDAread )				// –µ—Å–ª–∏ –Ω–µ –ø—Ä–∏–∂–∞–ª–∞—Å—å, —Ç–æ —à–∏–Ω–∞ –Ω–µ–∏—Å–ø—Ä–∞–≤–Ω–∞
 245              		.loc 1 744 7 is_stmt 0 view .LVU52
 246 0024 A368     		ldr	r3, [r4, #8]
 744:Drivers/SoftI2C/Src/i2cSoft.c **** 	if ( SDAread )				// –µ—Å–ª–∏ –Ω–µ –ø—Ä–∏–∂–∞–ª–∞—Å—å, —Ç–æ —à–∏–Ω–∞ –Ω–µ–∏—Å–ø—Ä–∞–≤–Ω–∞
 247              		.loc 1 744 5 view .LVU53
 248 0026 13F0100F 		tst	r3, #16
 249 002a 01D0     		beq	.L28
 745:Drivers/SoftI2C/Src/i2cSoft.c **** 		return 0;			// –≤—ã—Ö–æ–¥ —Å –æ—à–∏–±–∫–æ–π
 250              		.loc 1 745 10 view .LVU54
 251 002c 0020     		movs	r0, #0
 252 002e F4E7     		b	.L23
 253              	.L28:
 746:Drivers/SoftI2C/Src/i2cSoft.c **** 	SCLL;	
 254              		.loc 1 746 2 is_stmt 1 view .LVU55
 255 0030 2022     		movs	r2, #32
 256 0032 6261     		str	r2, [r4, #20]
 747:Drivers/SoftI2C/Src/i2cSoft.c **** 	i2cSoft_Delay();
 257              		.loc 1 747 2 view .LVU56
 258 0034 FFF7FEFF 		bl	i2cSoft_Delay
 259              	.LVL15:
 748:Drivers/SoftI2C/Src/i2cSoft.c **** 	return 1;				// —Å—Ç–∞—Ä—Ç —É—Å–ø–µ—à–Ω–æ —Å—Ñ–æ—Ä–º–∏—Ä–æ–≤–∞–Ω
 260              		.loc 1 748 2 view .LVU57
 748:Drivers/SoftI2C/Src/i2cSoft.c **** 	return 1;				// —Å—Ç–∞—Ä—Ç —É—Å–ø–µ—à–Ω–æ —Å—Ñ–æ—Ä–º–∏—Ä–æ–≤–∞–Ω
 261              		.loc 1 748 9 is_stmt 0 view .LVU58
 262 0038 0120     		movs	r0, #1
 263 003a EEE7     		b	.L23
 264              	.L30:
 265              		.align	2
 266              	.L29:
 267 003c 000C0140 		.word	1073810432
 268              		.cfi_endproc
 269              	.LFE84:
 271              		.section	.text.i2cSoft_WaitAck,"ax",%progbits
 272              		.align	1
 273              		.syntax unified
 274              		.thumb
 275              		.thumb_func
 276              		.fpu softvfp
 278              	i2cSoft_WaitAck:
 279              	.LFB88:
 817:Drivers/SoftI2C/Src/i2cSoft.c **** {
 280              		.loc 1 817 1 is_stmt 1 view -0
 281              		.cfi_startproc
 282              		@ args = 0, pretend = 0, frame = 0
 283              		@ frame_needed = 0, uses_anonymous_args = 0
 284 0000 10B5     		push	{r4, lr}
 285              	.LCFI4:
 286              		.cfi_def_cfa_offset 8
ARM GAS  C:\Users\madmax\AppData\Local\Temp\ccD50Og2.s 			page 22


 287              		.cfi_offset 4, -8
 288              		.cfi_offset 14, -4
 819:Drivers/SoftI2C/Src/i2cSoft.c **** 	SCLL;
 289              		.loc 1 819 2 view .LVU60
 290 0002 0E4C     		ldr	r4, .L36
 291 0004 2023     		movs	r3, #32
 292 0006 6361     		str	r3, [r4, #20]
 820:Drivers/SoftI2C/Src/i2cSoft.c **** 	i2cSoft_Delay();
 293              		.loc 1 820 2 view .LVU61
 294 0008 FFF7FEFF 		bl	i2cSoft_Delay
 295              	.LVL16:
 821:Drivers/SoftI2C/Src/i2cSoft.c **** 	SDAH;
 296              		.loc 1 821 2 view .LVU62
 297 000c 1023     		movs	r3, #16
 298 000e 2361     		str	r3, [r4, #16]
 822:Drivers/SoftI2C/Src/i2cSoft.c **** 	i2cSoft_Delay();
 299              		.loc 1 822 2 view .LVU63
 300 0010 FFF7FEFF 		bl	i2cSoft_Delay
 301              	.LVL17:
 823:Drivers/SoftI2C/Src/i2cSoft.c **** 	SCLhigh();						// –¥–µ–ª–∞–µ–º –ø–æ–ª–æ–≤–∏–Ω—É –∫–ª–∏–∫–∞ –ª–∏–Ω–∏–µ–π SCL
 302              		.loc 1 823 2 view .LVU64
 303 0014 FFF7FEFF 		bl	SCLhigh
 304              	.LVL18:
 824:Drivers/SoftI2C/Src/i2cSoft.c **** 	i2cSoft_Delay();
 305              		.loc 1 824 2 view .LVU65
 306 0018 FFF7FEFF 		bl	i2cSoft_Delay
 307              	.LVL19:
 825:Drivers/SoftI2C/Src/i2cSoft.c **** 	i2cSoft_Delay();
 308              		.loc 1 825 2 view .LVU66
 309 001c FFF7FEFF 		bl	i2cSoft_Delay
 310              	.LVL20:
 826:Drivers/SoftI2C/Src/i2cSoft.c **** 	if ( SDAread ) {			// –∏ –ø—Ä–æ–≤–µ—Ä—è–µ–º, –ø—Ä–∏–∂–∞–ª –ª–∏ —Å–ª–µ–π–≤ –ª–∏–Ω–∏—é SDA
 311              		.loc 1 826 2 view .LVU67
 826:Drivers/SoftI2C/Src/i2cSoft.c **** 	if ( SDAread ) {			// –∏ –ø—Ä–æ–≤–µ—Ä—è–µ–º, –ø—Ä–∏–∂–∞–ª –ª–∏ —Å–ª–µ–π–≤ –ª–∏–Ω–∏—é SDA
 312              		.loc 1 826 7 is_stmt 0 view .LVU68
 313 0020 A368     		ldr	r3, [r4, #8]
 826:Drivers/SoftI2C/Src/i2cSoft.c **** 	if ( SDAread ) {			// –∏ –ø—Ä–æ–≤–µ—Ä—è–µ–º, –ø—Ä–∏–∂–∞–ª –ª–∏ —Å–ª–µ–π–≤ –ª–∏–Ω–∏—é SDA
 314              		.loc 1 826 5 view .LVU69
 315 0022 13F0100F 		tst	r3, #16
 316 0026 04D1     		bne	.L35
 830:Drivers/SoftI2C/Src/i2cSoft.c **** 	SCLL;						// –∑–∞–≤–µ—Ä—à–∞–µ–º –∫–ª–∏–∫ –ª–∏–Ω–∏–µ–π SCL
 317              		.loc 1 830 2 is_stmt 1 view .LVU70
 318 0028 044B     		ldr	r3, .L36
 319 002a 2022     		movs	r2, #32
 320 002c 5A61     		str	r2, [r3, #20]
 831:Drivers/SoftI2C/Src/i2cSoft.c **** 	return 1;
 321              		.loc 1 831 2 view .LVU71
 831:Drivers/SoftI2C/Src/i2cSoft.c **** 	return 1;
 322              		.loc 1 831 9 is_stmt 0 view .LVU72
 323 002e 0120     		movs	r0, #1
 324              	.L33:
 832:Drivers/SoftI2C/Src/i2cSoft.c **** }
 325              		.loc 1 832 1 view .LVU73
 326 0030 10BD     		pop	{r4, pc}
 327              	.L35:
 827:Drivers/SoftI2C/Src/i2cSoft.c **** 		SCLL;
 328              		.loc 1 827 3 is_stmt 1 view .LVU74
ARM GAS  C:\Users\madmax\AppData\Local\Temp\ccD50Og2.s 			page 23


 329 0032 2022     		movs	r2, #32
 330 0034 6261     		str	r2, [r4, #20]
 828:Drivers/SoftI2C/Src/i2cSoft.c **** 		return 0;
 331              		.loc 1 828 3 view .LVU75
 828:Drivers/SoftI2C/Src/i2cSoft.c **** 		return 0;
 332              		.loc 1 828 10 is_stmt 0 view .LVU76
 333 0036 0020     		movs	r0, #0
 334 0038 FAE7     		b	.L33
 335              	.L37:
 336 003a 00BF     		.align	2
 337              	.L36:
 338 003c 000C0140 		.word	1073810432
 339              		.cfi_endproc
 340              	.LFE88:
 342              		.section	.text.i2cSoft_GetByte,"ax",%progbits
 343              		.align	1
 344              		.syntax unified
 345              		.thumb
 346              		.thumb_func
 347              		.fpu softvfp
 349              	i2cSoft_GetByte:
 350              	.LFB90:
 866:Drivers/SoftI2C/Src/i2cSoft.c **** {
 351              		.loc 1 866 1 is_stmt 1 view -0
 352              		.cfi_startproc
 353              		@ args = 0, pretend = 0, frame = 8
 354              		@ frame_needed = 0, uses_anonymous_args = 0
 355 0000 30B5     		push	{r4, r5, lr}
 356              	.LCFI5:
 357              		.cfi_def_cfa_offset 12
 358              		.cfi_offset 4, -12
 359              		.cfi_offset 5, -8
 360              		.cfi_offset 14, -4
 361 0002 83B0     		sub	sp, sp, #12
 362              	.LCFI6:
 363              		.cfi_def_cfa_offset 24
 867:Drivers/SoftI2C/Src/i2cSoft.c **** 	volatile uint8_t i = 8;		// –Ω—É–∂–Ω–æ –æ—Ç–ø—Ä–∞–≤–∏—Ç—å 8 –±–∏—Ç –¥–∞–Ω–Ω—ã—Ö
 364              		.loc 1 867 2 view .LVU78
 867:Drivers/SoftI2C/Src/i2cSoft.c **** 	volatile uint8_t i = 8;		// –Ω—É–∂–Ω–æ –æ—Ç–ø—Ä–∞–≤–∏—Ç—å 8 –±–∏—Ç –¥–∞–Ω–Ω—ã—Ö
 365              		.loc 1 867 19 is_stmt 0 view .LVU79
 366 0004 0823     		movs	r3, #8
 367 0006 8DF80730 		strb	r3, [sp, #7]
 868:Drivers/SoftI2C/Src/i2cSoft.c **** 	uint8_t data = 0;
 368              		.loc 1 868 2 is_stmt 1 view .LVU80
 369              	.LVL21:
 870:Drivers/SoftI2C/Src/i2cSoft.c **** 	SDAH;						// –æ—Ç–ø—É—Å–∫–∞–µ–º –ª–∏–Ω–∏—é SDA. —É–ø—Ä–∞–≤–ª—è—Ç—å –µ–π –±—É–¥–µ—Ç —Å–ª–µ–π–≤
 370              		.loc 1 870 2 view .LVU81
 371 000a 124B     		ldr	r3, .L44
 372 000c 1022     		movs	r2, #16
 373 000e 1A61     		str	r2, [r3, #16]
 872:Drivers/SoftI2C/Src/i2cSoft.c **** 	while ( i-- ) {				// –ø–æ–∫–∞ –Ω–µ –ø–æ–ª—É—á–∏–ª–∏ –≤—Å–µ –±–∏—Ç—ã
 374              		.loc 1 872 2 view .LVU82
 868:Drivers/SoftI2C/Src/i2cSoft.c **** 	uint8_t data = 0;
 375              		.loc 1 868 10 is_stmt 0 view .LVU83
 376 0010 0024     		movs	r4, #0
 377              	.LVL22:
 378              	.L39:
ARM GAS  C:\Users\madmax\AppData\Local\Temp\ccD50Og2.s 			page 24


 872:Drivers/SoftI2C/Src/i2cSoft.c **** 	while ( i-- ) {				// –ø–æ–∫–∞ –Ω–µ –ø–æ–ª—É—á–∏–ª–∏ –≤—Å–µ –±–∏—Ç—ã
 379              		.loc 1 872 11 view .LVU84
 380 0012 9DF80730 		ldrb	r3, [sp, #7]	@ zero_extendqisi2
 381 0016 DBB2     		uxtb	r3, r3
 382 0018 5A1E     		subs	r2, r3, #1
 383 001a D2B2     		uxtb	r2, r2
 384 001c 8DF80720 		strb	r2, [sp, #7]
 872:Drivers/SoftI2C/Src/i2cSoft.c **** 	while ( i-- ) {				// –ø–æ–∫–∞ –Ω–µ –ø–æ–ª—É—á–∏–ª–∏ –≤—Å–µ –±–∏—Ç—ã
 385              		.loc 1 872 8 view .LVU85
 386 0020 8BB1     		cbz	r3, .L43
 873:Drivers/SoftI2C/Src/i2cSoft.c **** 		data <<= 1;
 387              		.loc 1 873 3 is_stmt 1 view .LVU86
 873:Drivers/SoftI2C/Src/i2cSoft.c **** 		data <<= 1;
 388              		.loc 1 873 8 is_stmt 0 view .LVU87
 389 0022 6400     		lsls	r4, r4, #1
 390              	.LVL23:
 873:Drivers/SoftI2C/Src/i2cSoft.c **** 		data <<= 1;
 391              		.loc 1 873 8 view .LVU88
 392 0024 E4B2     		uxtb	r4, r4
 393              	.LVL24:
 874:Drivers/SoftI2C/Src/i2cSoft.c **** 		SCLL;					// –¥–µ–ª–∞–µ–º –∫–ª–∏–∫ –ª–∏–Ω–∏–µ–π SCL
 394              		.loc 1 874 3 is_stmt 1 view .LVU89
 395 0026 0B4D     		ldr	r5, .L44
 396 0028 2023     		movs	r3, #32
 397 002a 6B61     		str	r3, [r5, #20]
 875:Drivers/SoftI2C/Src/i2cSoft.c **** 		i2cSoft_Delay();
 398              		.loc 1 875 3 view .LVU90
 399 002c FFF7FEFF 		bl	i2cSoft_Delay
 400              	.LVL25:
 877:Drivers/SoftI2C/Src/i2cSoft.c **** 		SCLhigh();
 401              		.loc 1 877 3 view .LVU91
 402 0030 FFF7FEFF 		bl	SCLhigh
 403              	.LVL26:
 878:Drivers/SoftI2C/Src/i2cSoft.c **** 		i2cSoft_Delay();
 404              		.loc 1 878 3 view .LVU92
 405 0034 FFF7FEFF 		bl	i2cSoft_Delay
 406              	.LVL27:
 879:Drivers/SoftI2C/Src/i2cSoft.c **** 		if ( SDAread ) {		// —á–∏—Ç–∞–µ–º –∑–Ω–∞—á–µ–Ω–∏–µ –Ω–∞ –ª–∏–Ω–∏–∏ SDA
 407              		.loc 1 879 3 view .LVU93
 879:Drivers/SoftI2C/Src/i2cSoft.c **** 		if ( SDAread ) {		// —á–∏—Ç–∞–µ–º –∑–Ω–∞—á–µ–Ω–∏–µ –Ω–∞ –ª–∏–Ω–∏–∏ SDA
 408              		.loc 1 879 8 is_stmt 0 view .LVU94
 409 0038 AB68     		ldr	r3, [r5, #8]
 879:Drivers/SoftI2C/Src/i2cSoft.c **** 		if ( SDAread ) {		// —á–∏—Ç–∞–µ–º –∑–Ω–∞—á–µ–Ω–∏–µ –Ω–∞ –ª–∏–Ω–∏–∏ SDA
 410              		.loc 1 879 6 view .LVU95
 411 003a 13F0100F 		tst	r3, #16
 412 003e E8D0     		beq	.L39
 880:Drivers/SoftI2C/Src/i2cSoft.c **** 			data |= 0x01;
 413              		.loc 1 880 4 is_stmt 1 view .LVU96
 880:Drivers/SoftI2C/Src/i2cSoft.c **** 			data |= 0x01;
 414              		.loc 1 880 9 is_stmt 0 view .LVU97
 415 0040 44F00104 		orr	r4, r4, #1
 416              	.LVL28:
 880:Drivers/SoftI2C/Src/i2cSoft.c **** 			data |= 0x01;
 417              		.loc 1 880 9 view .LVU98
 418 0044 E5E7     		b	.L39
 419              	.L43:
 883:Drivers/SoftI2C/Src/i2cSoft.c **** 	SCLL;
ARM GAS  C:\Users\madmax\AppData\Local\Temp\ccD50Og2.s 			page 25


 420              		.loc 1 883 2 is_stmt 1 view .LVU99
 421 0046 034B     		ldr	r3, .L44
 422 0048 2022     		movs	r2, #32
 423 004a 5A61     		str	r2, [r3, #20]
 884:Drivers/SoftI2C/Src/i2cSoft.c **** 	return data;				// –≤–æ–∑–≤—Ä–∞—â–∞–µ–º –ø—Ä–æ—á–∏—Ç–∞–Ω–Ω–æ–µ –∑–Ω–∞—á–µ–Ω–∏–µ
 424              		.loc 1 884 2 view .LVU100
 885:Drivers/SoftI2C/Src/i2cSoft.c **** }
 425              		.loc 1 885 1 is_stmt 0 view .LVU101
 426 004c 2046     		mov	r0, r4
 427 004e 03B0     		add	sp, sp, #12
 428              	.LCFI7:
 429              		.cfi_def_cfa_offset 12
 430              		@ sp needed
 431 0050 30BD     		pop	{r4, r5, pc}
 432              	.LVL29:
 433              	.L45:
 885:Drivers/SoftI2C/Src/i2cSoft.c **** }
 434              		.loc 1 885 1 view .LVU102
 435 0052 00BF     		.align	2
 436              	.L44:
 437 0054 000C0140 		.word	1073810432
 438              		.cfi_endproc
 439              	.LFE90:
 441              		.section	.text.i2cSoft_NoAck,"ax",%progbits
 442              		.align	1
 443              		.syntax unified
 444              		.thumb
 445              		.thumb_func
 446              		.fpu softvfp
 448              	i2cSoft_NoAck:
 449              	.LFB87:
 796:Drivers/SoftI2C/Src/i2cSoft.c **** {
 450              		.loc 1 796 1 is_stmt 1 view -0
 451              		.cfi_startproc
 452              		@ args = 0, pretend = 0, frame = 0
 453              		@ frame_needed = 0, uses_anonymous_args = 0
 454 0000 38B5     		push	{r3, r4, r5, lr}
 455              	.LCFI8:
 456              		.cfi_def_cfa_offset 16
 457              		.cfi_offset 3, -16
 458              		.cfi_offset 4, -12
 459              		.cfi_offset 5, -8
 460              		.cfi_offset 14, -4
 798:Drivers/SoftI2C/Src/i2cSoft.c **** 	SCLL;
 461              		.loc 1 798 2 view .LVU104
 462 0002 084C     		ldr	r4, .L48
 463 0004 2025     		movs	r5, #32
 464 0006 6561     		str	r5, [r4, #20]
 799:Drivers/SoftI2C/Src/i2cSoft.c **** 	i2cSoft_Delay();
 465              		.loc 1 799 2 view .LVU105
 466 0008 FFF7FEFF 		bl	i2cSoft_Delay
 467              	.LVL30:
 800:Drivers/SoftI2C/Src/i2cSoft.c **** 	SDAH;						// –æ—Ç–ø—É—Å–∫–∞–µ–º –ª–∏–Ω–∏—é SDA
 468              		.loc 1 800 2 view .LVU106
 469 000c 1023     		movs	r3, #16
 470 000e 2361     		str	r3, [r4, #16]
 801:Drivers/SoftI2C/Src/i2cSoft.c **** 	i2cSoft_Delay();
ARM GAS  C:\Users\madmax\AppData\Local\Temp\ccD50Og2.s 			page 26


 471              		.loc 1 801 2 view .LVU107
 472 0010 FFF7FEFF 		bl	i2cSoft_Delay
 473              	.LVL31:
 802:Drivers/SoftI2C/Src/i2cSoft.c **** 	SCLhigh();						// –∏ –¥–µ–ª–∞–µ–º –æ–¥–∏–Ω –∫–ª–∏–∫ –ª–∏–Ω–∏–µ–º SCL
 474              		.loc 1 802 2 view .LVU108
 475 0014 FFF7FEFF 		bl	SCLhigh
 476              	.LVL32:
 803:Drivers/SoftI2C/Src/i2cSoft.c **** 	i2cSoft_Delay();
 477              		.loc 1 803 2 view .LVU109
 478 0018 FFF7FEFF 		bl	i2cSoft_Delay
 479              	.LVL33:
 804:Drivers/SoftI2C/Src/i2cSoft.c **** 	i2cSoft_Delay();
 480              		.loc 1 804 2 view .LVU110
 481 001c FFF7FEFF 		bl	i2cSoft_Delay
 482              	.LVL34:
 805:Drivers/SoftI2C/Src/i2cSoft.c **** 	SCLL;
 483              		.loc 1 805 2 view .LVU111
 484 0020 6561     		str	r5, [r4, #20]
 807:Drivers/SoftI2C/Src/i2cSoft.c **** }
 485              		.loc 1 807 1 is_stmt 0 view .LVU112
 486 0022 38BD     		pop	{r3, r4, r5, pc}
 487              	.L49:
 488              		.align	2
 489              	.L48:
 490 0024 000C0140 		.word	1073810432
 491              		.cfi_endproc
 492              	.LFE87:
 494              		.section	.text.i2cSoft_Stop,"ax",%progbits
 495              		.align	1
 496              		.syntax unified
 497              		.thumb
 498              		.thumb_func
 499              		.fpu softvfp
 501              	i2cSoft_Stop:
 502              	.LFB85:
 759:Drivers/SoftI2C/Src/i2cSoft.c **** {
 503              		.loc 1 759 1 is_stmt 1 view -0
 504              		.cfi_startproc
 505              		@ args = 0, pretend = 0, frame = 0
 506              		@ frame_needed = 0, uses_anonymous_args = 0
 507 0000 38B5     		push	{r3, r4, r5, lr}
 508              	.LCFI9:
 509              		.cfi_def_cfa_offset 16
 510              		.cfi_offset 3, -16
 511              		.cfi_offset 4, -12
 512              		.cfi_offset 5, -8
 513              		.cfi_offset 14, -4
 761:Drivers/SoftI2C/Src/i2cSoft.c **** 	SCLL;						// –ø–æ—Å–ª–µ–¥–æ–≤–∞—Ç–µ–ª—å–Ω–æ—Å—Ç—å –¥–ª—è —Ñ–æ—Ä–º–∏—Ä–æ–≤–∞–Ω–∏—è –°—Ç–æ–ø–∞
 514              		.loc 1 761 2 view .LVU114
 515 0002 084C     		ldr	r4, .L52
 516 0004 2023     		movs	r3, #32
 517 0006 6361     		str	r3, [r4, #20]
 762:Drivers/SoftI2C/Src/i2cSoft.c **** 	i2cSoft_Delay();
 518              		.loc 1 762 2 view .LVU115
 519 0008 FFF7FEFF 		bl	i2cSoft_Delay
 520              	.LVL35:
 763:Drivers/SoftI2C/Src/i2cSoft.c **** 	SDAL;
ARM GAS  C:\Users\madmax\AppData\Local\Temp\ccD50Og2.s 			page 27


 521              		.loc 1 763 2 view .LVU116
 522 000c 1025     		movs	r5, #16
 523 000e 6561     		str	r5, [r4, #20]
 764:Drivers/SoftI2C/Src/i2cSoft.c **** 	i2cSoft_Delay();
 524              		.loc 1 764 2 view .LVU117
 525 0010 FFF7FEFF 		bl	i2cSoft_Delay
 526              	.LVL36:
 765:Drivers/SoftI2C/Src/i2cSoft.c **** 	SCLhigh();
 527              		.loc 1 765 2 view .LVU118
 528 0014 FFF7FEFF 		bl	SCLhigh
 529              	.LVL37:
 766:Drivers/SoftI2C/Src/i2cSoft.c **** 	i2cSoft_Delay();
 530              		.loc 1 766 2 view .LVU119
 531 0018 FFF7FEFF 		bl	i2cSoft_Delay
 532              	.LVL38:
 767:Drivers/SoftI2C/Src/i2cSoft.c **** 	SDAH;
 533              		.loc 1 767 2 view .LVU120
 534 001c 2561     		str	r5, [r4, #16]
 768:Drivers/SoftI2C/Src/i2cSoft.c **** 	i2cSoft_Delay();
 535              		.loc 1 768 2 view .LVU121
 536 001e FFF7FEFF 		bl	i2cSoft_Delay
 537              	.LVL39:
 769:Drivers/SoftI2C/Src/i2cSoft.c **** }
 538              		.loc 1 769 1 is_stmt 0 view .LVU122
 539 0022 38BD     		pop	{r3, r4, r5, pc}
 540              	.L53:
 541              		.align	2
 542              	.L52:
 543 0024 000C0140 		.word	1073810432
 544              		.cfi_endproc
 545              	.LFE85:
 547              		.section	.text.i2cSoft_Ack,"ax",%progbits
 548              		.align	1
 549              		.syntax unified
 550              		.thumb
 551              		.thumb_func
 552              		.fpu softvfp
 554              	i2cSoft_Ack:
 555              	.LFB86:
 778:Drivers/SoftI2C/Src/i2cSoft.c **** {
 556              		.loc 1 778 1 is_stmt 1 view -0
 557              		.cfi_startproc
 558              		@ args = 0, pretend = 0, frame = 0
 559              		@ frame_needed = 0, uses_anonymous_args = 0
 560 0000 38B5     		push	{r3, r4, r5, lr}
 561              	.LCFI10:
 562              		.cfi_def_cfa_offset 16
 563              		.cfi_offset 3, -16
 564              		.cfi_offset 4, -12
 565              		.cfi_offset 5, -8
 566              		.cfi_offset 14, -4
 780:Drivers/SoftI2C/Src/i2cSoft.c **** 	SCLL;
 567              		.loc 1 780 2 view .LVU124
 568 0002 084C     		ldr	r4, .L56
 569 0004 2025     		movs	r5, #32
 570 0006 6561     		str	r5, [r4, #20]
 781:Drivers/SoftI2C/Src/i2cSoft.c **** 	i2cSoft_Delay();
ARM GAS  C:\Users\madmax\AppData\Local\Temp\ccD50Og2.s 			page 28


 571              		.loc 1 781 2 view .LVU125
 572 0008 FFF7FEFF 		bl	i2cSoft_Delay
 573              	.LVL40:
 782:Drivers/SoftI2C/Src/i2cSoft.c **** 	SDAL;						// –ø—Ä–∏–∂–∏–º–∞–µ–º –ª–∏–Ω–∏—é SDA –∫ –∑–µ–º–ª–µ
 574              		.loc 1 782 2 view .LVU126
 575 000c 1023     		movs	r3, #16
 576 000e 6361     		str	r3, [r4, #20]
 783:Drivers/SoftI2C/Src/i2cSoft.c **** 	i2cSoft_Delay();
 577              		.loc 1 783 2 view .LVU127
 578 0010 FFF7FEFF 		bl	i2cSoft_Delay
 579              	.LVL41:
 784:Drivers/SoftI2C/Src/i2cSoft.c **** 	SCLhigh();						// –∏ –¥–µ–ª–∞–µ–º –æ–¥–∏–Ω –∫–ª–∏–∫ –ª–∏–Ω–∏–µ–º SCL
 580              		.loc 1 784 2 view .LVU128
 581 0014 FFF7FEFF 		bl	SCLhigh
 582              	.LVL42:
 785:Drivers/SoftI2C/Src/i2cSoft.c **** 	i2cSoft_Delay();
 583              		.loc 1 785 2 view .LVU129
 584 0018 FFF7FEFF 		bl	i2cSoft_Delay
 585              	.LVL43:
 786:Drivers/SoftI2C/Src/i2cSoft.c **** 	SCLL;
 586              		.loc 1 786 2 view .LVU130
 587 001c 6561     		str	r5, [r4, #20]
 787:Drivers/SoftI2C/Src/i2cSoft.c **** 	i2cSoft_Delay();
 588              		.loc 1 787 2 view .LVU131
 589 001e FFF7FEFF 		bl	i2cSoft_Delay
 590              	.LVL44:
 788:Drivers/SoftI2C/Src/i2cSoft.c **** }
 591              		.loc 1 788 1 is_stmt 0 view .LVU132
 592 0022 38BD     		pop	{r3, r4, r5, pc}
 593              	.L57:
 594              		.align	2
 595              	.L56:
 596 0024 000C0140 		.word	1073810432
 597              		.cfi_endproc
 598              	.LFE86:
 600              		.section	.text.i2cSoft_Init,"ax",%progbits
 601              		.align	1
 602              		.global	i2cSoft_Init
 603              		.syntax unified
 604              		.thumb
 605              		.thumb_func
 606              		.fpu softvfp
 608              	i2cSoft_Init:
 609              	.LFB66:
  46:Drivers/SoftI2C/Src/i2cSoft.c **** {
 610              		.loc 1 46 1 is_stmt 1 view -0
 611              		.cfi_startproc
 612              		@ args = 0, pretend = 0, frame = 0
 613              		@ frame_needed = 0, uses_anonymous_args = 0
 614 0000 08B5     		push	{r3, lr}
 615              	.LCFI11:
 616              		.cfi_def_cfa_offset 8
 617              		.cfi_offset 3, -8
 618              		.cfi_offset 14, -4
  47:Drivers/SoftI2C/Src/i2cSoft.c **** 	SCLhigh();
 619              		.loc 1 47 2 view .LVU134
 620 0002 FFF7FEFF 		bl	SCLhigh
ARM GAS  C:\Users\madmax\AppData\Local\Temp\ccD50Og2.s 			page 29


 621              	.LVL45:
  48:Drivers/SoftI2C/Src/i2cSoft.c **** 	SDAH;
 622              		.loc 1 48 2 view .LVU135
 623 0006 034B     		ldr	r3, .L60
 624 0008 1022     		movs	r2, #16
 625 000a 1A61     		str	r2, [r3, #16]
  49:Drivers/SoftI2C/Src/i2cSoft.c **** 	 i2cSoft_Delay();
 626              		.loc 1 49 3 view .LVU136
 627 000c FFF7FEFF 		bl	i2cSoft_Delay
 628              	.LVL46:
  51:Drivers/SoftI2C/Src/i2cSoft.c **** }
 629              		.loc 1 51 1 is_stmt 0 view .LVU137
 630 0010 08BD     		pop	{r3, pc}
 631              	.L61:
 632 0012 00BF     		.align	2
 633              	.L60:
 634 0014 000C0140 		.word	1073810432
 635              		.cfi_endproc
 636              	.LFE66:
 638              		.section	.text.i2cSoft_Read,"ax",%progbits
 639              		.align	1
 640              		.global	i2cSoft_Read
 641              		.syntax unified
 642              		.thumb
 643              		.thumb_func
 644              		.fpu softvfp
 646              	i2cSoft_Read:
 647              	.LVL47:
 648              	.LFB67:
  53:Drivers/SoftI2C/Src/i2cSoft.c **** {
 649              		.loc 1 53 1 is_stmt 1 view -0
 650              		.cfi_startproc
 651              		@ args = 0, pretend = 0, frame = 0
 652              		@ frame_needed = 0, uses_anonymous_args = 0
  53:Drivers/SoftI2C/Src/i2cSoft.c **** {
 653              		.loc 1 53 1 is_stmt 0 view .LVU139
 654 0000 10B5     		push	{r4, lr}
 655              	.LCFI12:
 656              		.cfi_def_cfa_offset 8
 657              		.cfi_offset 4, -8
 658              		.cfi_offset 14, -4
 659 0002 0446     		mov	r4, r0
  54:Drivers/SoftI2C/Src/i2cSoft.c **** 	if ( !i2cSoft_Start() )
 660              		.loc 1 54 2 is_stmt 1 view .LVU140
  54:Drivers/SoftI2C/Src/i2cSoft.c **** 	if ( !i2cSoft_Start() )
 661              		.loc 1 54 8 is_stmt 0 view .LVU141
 662 0004 FFF7FEFF 		bl	i2cSoft_Start
 663              	.LVL48:
  54:Drivers/SoftI2C/Src/i2cSoft.c **** 	if ( !i2cSoft_Start() )
 664              		.loc 1 54 5 view .LVU142
 665 0008 38B3     		cbz	r0, .L67
  57:Drivers/SoftI2C/Src/i2cSoft.c **** 	i2cSoft_PutByte( BNO055_ADDRESS_A << 1 );
 666              		.loc 1 57 2 is_stmt 1 view .LVU143
 667 000a 5220     		movs	r0, #82
 668 000c FFF7FEFF 		bl	i2cSoft_PutByte
 669              	.LVL49:
  59:Drivers/SoftI2C/Src/i2cSoft.c **** 	if ( !i2cSoft_WaitAck() ) 
ARM GAS  C:\Users\madmax\AppData\Local\Temp\ccD50Og2.s 			page 30


 670              		.loc 1 59 2 view .LVU144
  59:Drivers/SoftI2C/Src/i2cSoft.c **** 	if ( !i2cSoft_WaitAck() ) 
 671              		.loc 1 59 8 is_stmt 0 view .LVU145
 672 0010 FFF7FEFF 		bl	i2cSoft_WaitAck
 673              	.LVL50:
  59:Drivers/SoftI2C/Src/i2cSoft.c **** 	if ( !i2cSoft_WaitAck() ) 
 674              		.loc 1 59 5 view .LVU146
 675 0014 A8B1     		cbz	r0, .L69
  64:Drivers/SoftI2C/Src/i2cSoft.c **** 	i2cSoft_PutByte( reg );
 676              		.loc 1 64 2 is_stmt 1 view .LVU147
 677 0016 2046     		mov	r0, r4
 678 0018 FFF7FEFF 		bl	i2cSoft_PutByte
 679              	.LVL51:
  65:Drivers/SoftI2C/Src/i2cSoft.c **** 	if ( !i2cSoft_WaitAck() ) 
 680              		.loc 1 65 2 view .LVU148
  65:Drivers/SoftI2C/Src/i2cSoft.c **** 	if ( !i2cSoft_WaitAck() ) 
 681              		.loc 1 65 8 is_stmt 0 view .LVU149
 682 001c FFF7FEFF 		bl	i2cSoft_WaitAck
 683              	.LVL52:
  65:Drivers/SoftI2C/Src/i2cSoft.c **** 	if ( !i2cSoft_WaitAck() ) 
 684              		.loc 1 65 5 view .LVU150
 685 0020 98B1     		cbz	r0, .L70
  70:Drivers/SoftI2C/Src/i2cSoft.c **** 	i2cSoft_Start();
 686              		.loc 1 70 2 is_stmt 1 view .LVU151
 687 0022 FFF7FEFF 		bl	i2cSoft_Start
 688              	.LVL53:
  71:Drivers/SoftI2C/Src/i2cSoft.c **** 	i2cSoft_PutByte( (BNO055_ADDRESS_A << 1) + 1 );
 689              		.loc 1 71 2 view .LVU152
 690 0026 5320     		movs	r0, #83
 691 0028 FFF7FEFF 		bl	i2cSoft_PutByte
 692              	.LVL54:
  72:Drivers/SoftI2C/Src/i2cSoft.c **** 		if ( !i2cSoft_WaitAck() ) 
 693              		.loc 1 72 3 view .LVU153
  72:Drivers/SoftI2C/Src/i2cSoft.c **** 		if ( !i2cSoft_WaitAck() ) 
 694              		.loc 1 72 9 is_stmt 0 view .LVU154
 695 002c FFF7FEFF 		bl	i2cSoft_WaitAck
 696              	.LVL55:
  72:Drivers/SoftI2C/Src/i2cSoft.c **** 		if ( !i2cSoft_WaitAck() ) 
 697              		.loc 1 72 6 view .LVU155
 698 0030 78B1     		cbz	r0, .L71
  79:Drivers/SoftI2C/Src/i2cSoft.c **** 	uint8_t data = i2cSoft_GetByte();
 699              		.loc 1 79 2 is_stmt 1 view .LVU156
  79:Drivers/SoftI2C/Src/i2cSoft.c **** 	uint8_t data = i2cSoft_GetByte();
 700              		.loc 1 79 17 is_stmt 0 view .LVU157
 701 0032 FFF7FEFF 		bl	i2cSoft_GetByte
 702              	.LVL56:
 703 0036 0446     		mov	r4, r0
 704              	.LVL57:
  81:Drivers/SoftI2C/Src/i2cSoft.c **** 	i2cSoft_NoAck();
 705              		.loc 1 81 2 is_stmt 1 view .LVU158
 706 0038 FFF7FEFF 		bl	i2cSoft_NoAck
 707              	.LVL58:
  82:Drivers/SoftI2C/Src/i2cSoft.c **** 	i2cSoft_Stop();
 708              		.loc 1 82 2 view .LVU159
 709 003c FFF7FEFF 		bl	i2cSoft_Stop
 710              	.LVL59:
  84:Drivers/SoftI2C/Src/i2cSoft.c **** 		return data;
ARM GAS  C:\Users\madmax\AppData\Local\Temp\ccD50Og2.s 			page 31


 711              		.loc 1 84 3 view .LVU160
  84:Drivers/SoftI2C/Src/i2cSoft.c **** 		return data;
 712              		.loc 1 84 10 is_stmt 0 view .LVU161
 713 0040 0CE0     		b	.L63
 714              	.LVL60:
 715              	.L69:
  61:Drivers/SoftI2C/Src/i2cSoft.c **** 		i2cSoft_Stop();
 716              		.loc 1 61 3 is_stmt 1 view .LVU162
 717 0042 FFF7FEFF 		bl	i2cSoft_Stop
 718              	.LVL61:
  62:Drivers/SoftI2C/Src/i2cSoft.c **** 		return I2C_RESULT_ERROR;
 719              		.loc 1 62 3 view .LVU163
  62:Drivers/SoftI2C/Src/i2cSoft.c **** 		return I2C_RESULT_ERROR;
 720              		.loc 1 62 10 is_stmt 0 view .LVU164
 721 0046 FF24     		movs	r4, #255
 722 0048 08E0     		b	.L63
 723              	.L70:
  67:Drivers/SoftI2C/Src/i2cSoft.c **** 		i2cSoft_Stop();
 724              		.loc 1 67 3 is_stmt 1 view .LVU165
 725 004a FFF7FEFF 		bl	i2cSoft_Stop
 726              	.LVL62:
  68:Drivers/SoftI2C/Src/i2cSoft.c **** 		return I2C_RESULT_ERROR;
 727              		.loc 1 68 3 view .LVU166
  68:Drivers/SoftI2C/Src/i2cSoft.c **** 		return I2C_RESULT_ERROR;
 728              		.loc 1 68 10 is_stmt 0 view .LVU167
 729 004e FF24     		movs	r4, #255
 730 0050 04E0     		b	.L63
 731              	.L71:
  74:Drivers/SoftI2C/Src/i2cSoft.c **** 		i2cSoft_Stop();
 732              		.loc 1 74 3 is_stmt 1 view .LVU168
 733 0052 FFF7FEFF 		bl	i2cSoft_Stop
 734              	.LVL63:
  75:Drivers/SoftI2C/Src/i2cSoft.c **** 		return I2C_RESULT_ERROR;
 735              		.loc 1 75 3 view .LVU169
  75:Drivers/SoftI2C/Src/i2cSoft.c **** 		return I2C_RESULT_ERROR;
 736              		.loc 1 75 10 is_stmt 0 view .LVU170
 737 0056 FF24     		movs	r4, #255
 738 0058 00E0     		b	.L63
 739              	.L67:
  55:Drivers/SoftI2C/Src/i2cSoft.c **** 		return I2C_RESULT_ERROR;
 740              		.loc 1 55 10 view .LVU171
 741 005a FF24     		movs	r4, #255
 742              	.L63:
  85:Drivers/SoftI2C/Src/i2cSoft.c **** }
 743              		.loc 1 85 1 view .LVU172
 744 005c 2046     		mov	r0, r4
 745 005e 10BD     		pop	{r4, pc}
 746              		.cfi_endproc
 747              	.LFE67:
 749              		.section	.text.TC358870_i2c_Read,"ax",%progbits
 750              		.align	1
 751              		.global	TC358870_i2c_Read
 752              		.syntax unified
 753              		.thumb
 754              		.thumb_func
 755              		.fpu softvfp
 757              	TC358870_i2c_Read:
ARM GAS  C:\Users\madmax\AppData\Local\Temp\ccD50Og2.s 			page 32


 758              	.LVL64:
 759              	.LFB70:
 138:Drivers/SoftI2C/Src/i2cSoft.c **** {
 760              		.loc 1 138 1 is_stmt 1 view -0
 761              		.cfi_startproc
 762              		@ args = 0, pretend = 0, frame = 0
 763              		@ frame_needed = 0, uses_anonymous_args = 0
 138:Drivers/SoftI2C/Src/i2cSoft.c **** {
 764              		.loc 1 138 1 is_stmt 0 view .LVU174
 765 0000 10B5     		push	{r4, lr}
 766              	.LCFI13:
 767              		.cfi_def_cfa_offset 8
 768              		.cfi_offset 4, -8
 769              		.cfi_offset 14, -4
 770 0002 0446     		mov	r4, r0
 139:Drivers/SoftI2C/Src/i2cSoft.c **** 	if ( !i2cSoft_Start() )
 771              		.loc 1 139 2 is_stmt 1 view .LVU175
 139:Drivers/SoftI2C/Src/i2cSoft.c **** 	if ( !i2cSoft_Start() )
 772              		.loc 1 139 8 is_stmt 0 view .LVU176
 773 0004 FFF7FEFF 		bl	i2cSoft_Start
 774              	.LVL65:
 139:Drivers/SoftI2C/Src/i2cSoft.c **** 	if ( !i2cSoft_Start() )
 775              		.loc 1 139 5 view .LVU177
 776 0008 88B3     		cbz	r0, .L78
 142:Drivers/SoftI2C/Src/i2cSoft.c **** 	i2cSoft_PutByte( TOSHIBA_I2C_ADDR << 1 );
 777              		.loc 1 142 2 is_stmt 1 view .LVU178
 778 000a 1E20     		movs	r0, #30
 779 000c FFF7FEFF 		bl	i2cSoft_PutByte
 780              	.LVL66:
 143:Drivers/SoftI2C/Src/i2cSoft.c **** 	if ( !i2cSoft_WaitAck() ) 
 781              		.loc 1 143 2 view .LVU179
 143:Drivers/SoftI2C/Src/i2cSoft.c **** 	if ( !i2cSoft_WaitAck() ) 
 782              		.loc 1 143 8 is_stmt 0 view .LVU180
 783 0010 FFF7FEFF 		bl	i2cSoft_WaitAck
 784              	.LVL67:
 143:Drivers/SoftI2C/Src/i2cSoft.c **** 	if ( !i2cSoft_WaitAck() ) 
 785              		.loc 1 143 5 view .LVU181
 786 0014 D8B1     		cbz	r0, .L80
 148:Drivers/SoftI2C/Src/i2cSoft.c **** 	i2cSoft_PutByte( addr >> 8 );
 787              		.loc 1 148 2 is_stmt 1 view .LVU182
 788 0016 200A     		lsrs	r0, r4, #8
 789 0018 FFF7FEFF 		bl	i2cSoft_PutByte
 790              	.LVL68:
 149:Drivers/SoftI2C/Src/i2cSoft.c **** 	if ( !i2cSoft_WaitAck() ) 
 791              		.loc 1 149 2 view .LVU183
 149:Drivers/SoftI2C/Src/i2cSoft.c **** 	if ( !i2cSoft_WaitAck() ) 
 792              		.loc 1 149 8 is_stmt 0 view .LVU184
 793 001c FFF7FEFF 		bl	i2cSoft_WaitAck
 794              	.LVL69:
 149:Drivers/SoftI2C/Src/i2cSoft.c **** 	if ( !i2cSoft_WaitAck() ) 
 795              		.loc 1 149 5 view .LVU185
 796 0020 C8B1     		cbz	r0, .L81
 154:Drivers/SoftI2C/Src/i2cSoft.c **** 	i2cSoft_PutByte( addr & 0xFF );
 797              		.loc 1 154 2 is_stmt 1 view .LVU186
 798 0022 E0B2     		uxtb	r0, r4
 799 0024 FFF7FEFF 		bl	i2cSoft_PutByte
 800              	.LVL70:
ARM GAS  C:\Users\madmax\AppData\Local\Temp\ccD50Og2.s 			page 33


 155:Drivers/SoftI2C/Src/i2cSoft.c **** 	if ( !i2cSoft_WaitAck() ) 
 801              		.loc 1 155 2 view .LVU187
 155:Drivers/SoftI2C/Src/i2cSoft.c **** 	if ( !i2cSoft_WaitAck() ) 
 802              		.loc 1 155 8 is_stmt 0 view .LVU188
 803 0028 FFF7FEFF 		bl	i2cSoft_WaitAck
 804              	.LVL71:
 155:Drivers/SoftI2C/Src/i2cSoft.c **** 	if ( !i2cSoft_WaitAck() ) 
 805              		.loc 1 155 5 view .LVU189
 806 002c B8B1     		cbz	r0, .L82
 160:Drivers/SoftI2C/Src/i2cSoft.c **** 	i2cSoft_Start();
 807              		.loc 1 160 2 is_stmt 1 view .LVU190
 808 002e FFF7FEFF 		bl	i2cSoft_Start
 809              	.LVL72:
 161:Drivers/SoftI2C/Src/i2cSoft.c **** 	i2cSoft_PutByte( (TOSHIBA_I2C_ADDR << 1) + 1 );
 810              		.loc 1 161 2 view .LVU191
 811 0032 1F20     		movs	r0, #31
 812 0034 FFF7FEFF 		bl	i2cSoft_PutByte
 813              	.LVL73:
 162:Drivers/SoftI2C/Src/i2cSoft.c **** 		if ( !i2cSoft_WaitAck() ) 
 814              		.loc 1 162 3 view .LVU192
 162:Drivers/SoftI2C/Src/i2cSoft.c **** 		if ( !i2cSoft_WaitAck() ) 
 815              		.loc 1 162 9 is_stmt 0 view .LVU193
 816 0038 FFF7FEFF 		bl	i2cSoft_WaitAck
 817              	.LVL74:
 162:Drivers/SoftI2C/Src/i2cSoft.c **** 		if ( !i2cSoft_WaitAck() ) 
 818              		.loc 1 162 6 view .LVU194
 819 003c 98B1     		cbz	r0, .L83
 169:Drivers/SoftI2C/Src/i2cSoft.c **** 	uint8_t data = i2cSoft_GetByte();
 820              		.loc 1 169 2 is_stmt 1 view .LVU195
 169:Drivers/SoftI2C/Src/i2cSoft.c **** 	uint8_t data = i2cSoft_GetByte();
 821              		.loc 1 169 17 is_stmt 0 view .LVU196
 822 003e FFF7FEFF 		bl	i2cSoft_GetByte
 823              	.LVL75:
 824 0042 0446     		mov	r4, r0
 825              	.LVL76:
 171:Drivers/SoftI2C/Src/i2cSoft.c **** 	i2cSoft_NoAck();
 826              		.loc 1 171 2 is_stmt 1 view .LVU197
 827 0044 FFF7FEFF 		bl	i2cSoft_NoAck
 828              	.LVL77:
 172:Drivers/SoftI2C/Src/i2cSoft.c **** 	i2cSoft_Stop();
 829              		.loc 1 172 2 view .LVU198
 830 0048 FFF7FEFF 		bl	i2cSoft_Stop
 831              	.LVL78:
 174:Drivers/SoftI2C/Src/i2cSoft.c **** 		return data;
 832              		.loc 1 174 3 view .LVU199
 174:Drivers/SoftI2C/Src/i2cSoft.c **** 		return data;
 833              		.loc 1 174 10 is_stmt 0 view .LVU200
 834 004c 10E0     		b	.L73
 835              	.LVL79:
 836              	.L80:
 145:Drivers/SoftI2C/Src/i2cSoft.c **** 		i2cSoft_Stop();
 837              		.loc 1 145 3 is_stmt 1 view .LVU201
 838 004e FFF7FEFF 		bl	i2cSoft_Stop
 839              	.LVL80:
 146:Drivers/SoftI2C/Src/i2cSoft.c **** 		return I2C_RESULT_ERROR;
 840              		.loc 1 146 3 view .LVU202
 146:Drivers/SoftI2C/Src/i2cSoft.c **** 		return I2C_RESULT_ERROR;
ARM GAS  C:\Users\madmax\AppData\Local\Temp\ccD50Og2.s 			page 34


 841              		.loc 1 146 10 is_stmt 0 view .LVU203
 842 0052 FF24     		movs	r4, #255
 843 0054 0CE0     		b	.L73
 844              	.L81:
 151:Drivers/SoftI2C/Src/i2cSoft.c **** 		i2cSoft_Stop();
 845              		.loc 1 151 3 is_stmt 1 view .LVU204
 846 0056 FFF7FEFF 		bl	i2cSoft_Stop
 847              	.LVL81:
 152:Drivers/SoftI2C/Src/i2cSoft.c **** 		return I2C_RESULT_ERROR;
 848              		.loc 1 152 3 view .LVU205
 152:Drivers/SoftI2C/Src/i2cSoft.c **** 		return I2C_RESULT_ERROR;
 849              		.loc 1 152 10 is_stmt 0 view .LVU206
 850 005a FF24     		movs	r4, #255
 851 005c 08E0     		b	.L73
 852              	.L82:
 157:Drivers/SoftI2C/Src/i2cSoft.c **** 		i2cSoft_Stop();
 853              		.loc 1 157 3 is_stmt 1 view .LVU207
 854 005e FFF7FEFF 		bl	i2cSoft_Stop
 855              	.LVL82:
 158:Drivers/SoftI2C/Src/i2cSoft.c **** 		return I2C_RESULT_ERROR;
 856              		.loc 1 158 3 view .LVU208
 158:Drivers/SoftI2C/Src/i2cSoft.c **** 		return I2C_RESULT_ERROR;
 857              		.loc 1 158 10 is_stmt 0 view .LVU209
 858 0062 FF24     		movs	r4, #255
 859 0064 04E0     		b	.L73
 860              	.L83:
 164:Drivers/SoftI2C/Src/i2cSoft.c **** 		i2cSoft_Stop();
 861              		.loc 1 164 3 is_stmt 1 view .LVU210
 862 0066 FFF7FEFF 		bl	i2cSoft_Stop
 863              	.LVL83:
 165:Drivers/SoftI2C/Src/i2cSoft.c **** 		return I2C_RESULT_ERROR;
 864              		.loc 1 165 3 view .LVU211
 165:Drivers/SoftI2C/Src/i2cSoft.c **** 		return I2C_RESULT_ERROR;
 865              		.loc 1 165 10 is_stmt 0 view .LVU212
 866 006a FF24     		movs	r4, #255
 867 006c 00E0     		b	.L73
 868              	.L78:
 140:Drivers/SoftI2C/Src/i2cSoft.c **** 		return I2C_RESULT_ERROR;
 869              		.loc 1 140 10 view .LVU213
 870 006e FF24     		movs	r4, #255
 871              	.L73:
 175:Drivers/SoftI2C/Src/i2cSoft.c **** }
 872              		.loc 1 175 1 view .LVU214
 873 0070 2046     		mov	r0, r4
 874 0072 10BD     		pop	{r4, pc}
 875              		.cfi_endproc
 876              	.LFE70:
 878              		.section	.text.TC358870_i2c_Read8,"ax",%progbits
 879              		.align	1
 880              		.global	TC358870_i2c_Read8
 881              		.syntax unified
 882              		.thumb
 883              		.thumb_func
 884              		.fpu softvfp
 886              	TC358870_i2c_Read8:
 887              	.LVL84:
 888              	.LFB71:
ARM GAS  C:\Users\madmax\AppData\Local\Temp\ccD50Og2.s 			page 35


 177:Drivers/SoftI2C/Src/i2cSoft.c **** {
 889              		.loc 1 177 1 is_stmt 1 view -0
 890              		.cfi_startproc
 891              		@ args = 0, pretend = 0, frame = 0
 892              		@ frame_needed = 0, uses_anonymous_args = 0
 177:Drivers/SoftI2C/Src/i2cSoft.c **** {
 893              		.loc 1 177 1 is_stmt 0 view .LVU216
 894 0000 38B5     		push	{r3, r4, r5, lr}
 895              	.LCFI14:
 896              		.cfi_def_cfa_offset 16
 897              		.cfi_offset 3, -16
 898              		.cfi_offset 4, -12
 899              		.cfi_offset 5, -8
 900              		.cfi_offset 14, -4
 901 0002 0446     		mov	r4, r0
 902 0004 0D46     		mov	r5, r1
 181:Drivers/SoftI2C/Src/i2cSoft.c **** 	if ( !i2cSoft_Start() )
 903              		.loc 1 181 2 is_stmt 1 view .LVU217
 181:Drivers/SoftI2C/Src/i2cSoft.c **** 	if ( !i2cSoft_Start() )
 904              		.loc 1 181 8 is_stmt 0 view .LVU218
 905 0006 FFF7FEFF 		bl	i2cSoft_Start
 906              	.LVL85:
 181:Drivers/SoftI2C/Src/i2cSoft.c **** 	if ( !i2cSoft_Start() )
 907              		.loc 1 181 5 view .LVU219
 908 000a 90B3     		cbz	r0, .L90
 184:Drivers/SoftI2C/Src/i2cSoft.c **** 	i2cSoft_PutByte( TOSHIBA_I2C_ADDR << 1 );
 909              		.loc 1 184 2 is_stmt 1 view .LVU220
 910 000c 1E20     		movs	r0, #30
 911 000e FFF7FEFF 		bl	i2cSoft_PutByte
 912              	.LVL86:
 185:Drivers/SoftI2C/Src/i2cSoft.c **** 	if ( !i2cSoft_WaitAck() ) 
 913              		.loc 1 185 2 view .LVU221
 185:Drivers/SoftI2C/Src/i2cSoft.c **** 	if ( !i2cSoft_WaitAck() ) 
 914              		.loc 1 185 8 is_stmt 0 view .LVU222
 915 0012 FFF7FEFF 		bl	i2cSoft_WaitAck
 916              	.LVL87:
 185:Drivers/SoftI2C/Src/i2cSoft.c **** 	if ( !i2cSoft_WaitAck() ) 
 917              		.loc 1 185 5 view .LVU223
 918 0016 E0B1     		cbz	r0, .L92
 190:Drivers/SoftI2C/Src/i2cSoft.c **** 	i2cSoft_PutByte( addr >> 8 );
 919              		.loc 1 190 2 is_stmt 1 view .LVU224
 920 0018 200A     		lsrs	r0, r4, #8
 921 001a FFF7FEFF 		bl	i2cSoft_PutByte
 922              	.LVL88:
 191:Drivers/SoftI2C/Src/i2cSoft.c **** 	if ( !i2cSoft_WaitAck() ) 
 923              		.loc 1 191 2 view .LVU225
 191:Drivers/SoftI2C/Src/i2cSoft.c **** 	if ( !i2cSoft_WaitAck() ) 
 924              		.loc 1 191 8 is_stmt 0 view .LVU226
 925 001e FFF7FEFF 		bl	i2cSoft_WaitAck
 926              	.LVL89:
 191:Drivers/SoftI2C/Src/i2cSoft.c **** 	if ( !i2cSoft_WaitAck() ) 
 927              		.loc 1 191 5 view .LVU227
 928 0022 D0B1     		cbz	r0, .L93
 196:Drivers/SoftI2C/Src/i2cSoft.c **** 	i2cSoft_PutByte( addr & 0xFF );
 929              		.loc 1 196 2 is_stmt 1 view .LVU228
 930 0024 E0B2     		uxtb	r0, r4
 931 0026 FFF7FEFF 		bl	i2cSoft_PutByte
ARM GAS  C:\Users\madmax\AppData\Local\Temp\ccD50Og2.s 			page 36


 932              	.LVL90:
 197:Drivers/SoftI2C/Src/i2cSoft.c **** 	if ( !i2cSoft_WaitAck() ) 
 933              		.loc 1 197 2 view .LVU229
 197:Drivers/SoftI2C/Src/i2cSoft.c **** 	if ( !i2cSoft_WaitAck() ) 
 934              		.loc 1 197 8 is_stmt 0 view .LVU230
 935 002a FFF7FEFF 		bl	i2cSoft_WaitAck
 936              	.LVL91:
 197:Drivers/SoftI2C/Src/i2cSoft.c **** 	if ( !i2cSoft_WaitAck() ) 
 937              		.loc 1 197 5 view .LVU231
 938 002e C0B1     		cbz	r0, .L94
 202:Drivers/SoftI2C/Src/i2cSoft.c **** 	i2cSoft_Start();
 939              		.loc 1 202 2 is_stmt 1 view .LVU232
 940 0030 FFF7FEFF 		bl	i2cSoft_Start
 941              	.LVL92:
 203:Drivers/SoftI2C/Src/i2cSoft.c **** 	i2cSoft_PutByte( (TOSHIBA_I2C_ADDR << 1) + 1 );
 942              		.loc 1 203 2 view .LVU233
 943 0034 1F20     		movs	r0, #31
 944 0036 FFF7FEFF 		bl	i2cSoft_PutByte
 945              	.LVL93:
 204:Drivers/SoftI2C/Src/i2cSoft.c **** 		if ( !i2cSoft_WaitAck() ) 
 946              		.loc 1 204 3 view .LVU234
 204:Drivers/SoftI2C/Src/i2cSoft.c **** 		if ( !i2cSoft_WaitAck() ) 
 947              		.loc 1 204 9 is_stmt 0 view .LVU235
 948 003a FFF7FEFF 		bl	i2cSoft_WaitAck
 949              	.LVL94:
 204:Drivers/SoftI2C/Src/i2cSoft.c **** 		if ( !i2cSoft_WaitAck() ) 
 950              		.loc 1 204 6 view .LVU236
 951 003e A0B1     		cbz	r0, .L95
 211:Drivers/SoftI2C/Src/i2cSoft.c **** 	*data = i2cSoft_GetByte();
 952              		.loc 1 211 2 is_stmt 1 view .LVU237
 211:Drivers/SoftI2C/Src/i2cSoft.c **** 	*data = i2cSoft_GetByte();
 953              		.loc 1 211 10 is_stmt 0 view .LVU238
 954 0040 FFF7FEFF 		bl	i2cSoft_GetByte
 955              	.LVL95:
 211:Drivers/SoftI2C/Src/i2cSoft.c **** 	*data = i2cSoft_GetByte();
 956              		.loc 1 211 8 view .LVU239
 957 0044 2870     		strb	r0, [r5]
 213:Drivers/SoftI2C/Src/i2cSoft.c **** 	i2cSoft_NoAck();
 958              		.loc 1 213 2 is_stmt 1 view .LVU240
 959 0046 FFF7FEFF 		bl	i2cSoft_NoAck
 960              	.LVL96:
 214:Drivers/SoftI2C/Src/i2cSoft.c **** 	i2cSoft_Stop();
 961              		.loc 1 214 2 view .LVU241
 962 004a FFF7FEFF 		bl	i2cSoft_Stop
 963              	.LVL97:
 216:Drivers/SoftI2C/Src/i2cSoft.c **** 		return I2C_RESULT_SUCCESS;
 964              		.loc 1 216 3 view .LVU242
 216:Drivers/SoftI2C/Src/i2cSoft.c **** 		return I2C_RESULT_SUCCESS;
 965              		.loc 1 216 10 is_stmt 0 view .LVU243
 966 004e 0020     		movs	r0, #0
 967 0050 10E0     		b	.L85
 968              	.L92:
 187:Drivers/SoftI2C/Src/i2cSoft.c **** 		i2cSoft_Stop();
 969              		.loc 1 187 3 is_stmt 1 view .LVU244
 970 0052 FFF7FEFF 		bl	i2cSoft_Stop
 971              	.LVL98:
 188:Drivers/SoftI2C/Src/i2cSoft.c **** 		return I2C_RESULT_ERROR;
ARM GAS  C:\Users\madmax\AppData\Local\Temp\ccD50Og2.s 			page 37


 972              		.loc 1 188 3 view .LVU245
 188:Drivers/SoftI2C/Src/i2cSoft.c **** 		return I2C_RESULT_ERROR;
 973              		.loc 1 188 10 is_stmt 0 view .LVU246
 974 0056 FF20     		movs	r0, #255
 975 0058 0CE0     		b	.L85
 976              	.L93:
 193:Drivers/SoftI2C/Src/i2cSoft.c **** 		i2cSoft_Stop();
 977              		.loc 1 193 3 is_stmt 1 view .LVU247
 978 005a FFF7FEFF 		bl	i2cSoft_Stop
 979              	.LVL99:
 194:Drivers/SoftI2C/Src/i2cSoft.c **** 		return I2C_RESULT_ERROR;
 980              		.loc 1 194 3 view .LVU248
 194:Drivers/SoftI2C/Src/i2cSoft.c **** 		return I2C_RESULT_ERROR;
 981              		.loc 1 194 10 is_stmt 0 view .LVU249
 982 005e FF20     		movs	r0, #255
 983 0060 08E0     		b	.L85
 984              	.L94:
 199:Drivers/SoftI2C/Src/i2cSoft.c **** 		i2cSoft_Stop();
 985              		.loc 1 199 3 is_stmt 1 view .LVU250
 986 0062 FFF7FEFF 		bl	i2cSoft_Stop
 987              	.LVL100:
 200:Drivers/SoftI2C/Src/i2cSoft.c **** 		return I2C_RESULT_ERROR;
 988              		.loc 1 200 3 view .LVU251
 200:Drivers/SoftI2C/Src/i2cSoft.c **** 		return I2C_RESULT_ERROR;
 989              		.loc 1 200 10 is_stmt 0 view .LVU252
 990 0066 FF20     		movs	r0, #255
 991 0068 04E0     		b	.L85
 992              	.L95:
 206:Drivers/SoftI2C/Src/i2cSoft.c **** 		i2cSoft_Stop();
 993              		.loc 1 206 3 is_stmt 1 view .LVU253
 994 006a FFF7FEFF 		bl	i2cSoft_Stop
 995              	.LVL101:
 207:Drivers/SoftI2C/Src/i2cSoft.c **** 		return I2C_RESULT_ERROR;
 996              		.loc 1 207 3 view .LVU254
 207:Drivers/SoftI2C/Src/i2cSoft.c **** 		return I2C_RESULT_ERROR;
 997              		.loc 1 207 10 is_stmt 0 view .LVU255
 998 006e FF20     		movs	r0, #255
 999 0070 00E0     		b	.L85
 1000              	.L90:
 182:Drivers/SoftI2C/Src/i2cSoft.c **** 		return I2C_RESULT_ERROR;
 1001              		.loc 1 182 10 view .LVU256
 1002 0072 FF20     		movs	r0, #255
 1003              	.L85:
 217:Drivers/SoftI2C/Src/i2cSoft.c **** }
 1004              		.loc 1 217 1 view .LVU257
 1005 0074 38BD     		pop	{r3, r4, r5, pc}
 217:Drivers/SoftI2C/Src/i2cSoft.c **** }
 1006              		.loc 1 217 1 view .LVU258
 1007              		.cfi_endproc
 1008              	.LFE71:
 1010              		.section	.text.TC358870_i2c_Read16,"ax",%progbits
 1011              		.align	1
 1012              		.global	TC358870_i2c_Read16
 1013              		.syntax unified
 1014              		.thumb
 1015              		.thumb_func
 1016              		.fpu softvfp
ARM GAS  C:\Users\madmax\AppData\Local\Temp\ccD50Og2.s 			page 38


 1018              	TC358870_i2c_Read16:
 1019              	.LVL102:
 1020              	.LFB72:
 219:Drivers/SoftI2C/Src/i2cSoft.c **** {
 1021              		.loc 1 219 1 is_stmt 1 view -0
 1022              		.cfi_startproc
 1023              		@ args = 0, pretend = 0, frame = 0
 1024              		@ frame_needed = 0, uses_anonymous_args = 0
 219:Drivers/SoftI2C/Src/i2cSoft.c **** {
 1025              		.loc 1 219 1 is_stmt 0 view .LVU260
 1026 0000 10B5     		push	{r4, lr}
 1027              	.LCFI15:
 1028              		.cfi_def_cfa_offset 8
 1029              		.cfi_offset 4, -8
 1030              		.cfi_offset 14, -4
 1031 0002 0446     		mov	r4, r0
 221:Drivers/SoftI2C/Src/i2cSoft.c **** uint16_t ret = 0;
 1032              		.loc 1 221 1 is_stmt 1 view .LVU261
 1033              	.LVL103:
 223:Drivers/SoftI2C/Src/i2cSoft.c **** 	if ( !i2cSoft_Start() )
 1034              		.loc 1 223 2 view .LVU262
 223:Drivers/SoftI2C/Src/i2cSoft.c **** 	if ( !i2cSoft_Start() )
 1035              		.loc 1 223 8 is_stmt 0 view .LVU263
 1036 0004 FFF7FEFF 		bl	i2cSoft_Start
 1037              	.LVL104:
 223:Drivers/SoftI2C/Src/i2cSoft.c **** 	if ( !i2cSoft_Start() )
 1038              		.loc 1 223 5 view .LVU264
 1039 0008 D0B3     		cbz	r0, .L103
 226:Drivers/SoftI2C/Src/i2cSoft.c **** 	i2cSoft_PutByte( TOSHIBA_I2C_ADDR << 1 );
 1040              		.loc 1 226 2 is_stmt 1 view .LVU265
 1041 000a 1E20     		movs	r0, #30
 1042 000c FFF7FEFF 		bl	i2cSoft_PutByte
 1043              	.LVL105:
 227:Drivers/SoftI2C/Src/i2cSoft.c **** 	if ( !i2cSoft_WaitAck() ) 
 1044              		.loc 1 227 2 view .LVU266
 227:Drivers/SoftI2C/Src/i2cSoft.c **** 	if ( !i2cSoft_WaitAck() ) 
 1045              		.loc 1 227 8 is_stmt 0 view .LVU267
 1046 0010 FFF7FEFF 		bl	i2cSoft_WaitAck
 1047              	.LVL106:
 227:Drivers/SoftI2C/Src/i2cSoft.c **** 	if ( !i2cSoft_WaitAck() ) 
 1048              		.loc 1 227 5 view .LVU268
 1049 0014 00B3     		cbz	r0, .L105
 232:Drivers/SoftI2C/Src/i2cSoft.c **** 	i2cSoft_PutByte( addr >> 8 );
 1050              		.loc 1 232 2 is_stmt 1 view .LVU269
 1051 0016 200A     		lsrs	r0, r4, #8
 1052 0018 FFF7FEFF 		bl	i2cSoft_PutByte
 1053              	.LVL107:
 233:Drivers/SoftI2C/Src/i2cSoft.c **** 	if ( !i2cSoft_WaitAck() ) 
 1054              		.loc 1 233 2 view .LVU270
 233:Drivers/SoftI2C/Src/i2cSoft.c **** 	if ( !i2cSoft_WaitAck() ) 
 1055              		.loc 1 233 8 is_stmt 0 view .LVU271
 1056 001c FFF7FEFF 		bl	i2cSoft_WaitAck
 1057              	.LVL108:
 233:Drivers/SoftI2C/Src/i2cSoft.c **** 	if ( !i2cSoft_WaitAck() ) 
 1058              		.loc 1 233 5 view .LVU272
 1059 0020 F0B1     		cbz	r0, .L106
 238:Drivers/SoftI2C/Src/i2cSoft.c **** 	i2cSoft_PutByte( addr & 0xFF );
ARM GAS  C:\Users\madmax\AppData\Local\Temp\ccD50Og2.s 			page 39


 1060              		.loc 1 238 2 is_stmt 1 view .LVU273
 1061 0022 E0B2     		uxtb	r0, r4
 1062 0024 FFF7FEFF 		bl	i2cSoft_PutByte
 1063              	.LVL109:
 239:Drivers/SoftI2C/Src/i2cSoft.c **** 	if ( !i2cSoft_WaitAck() ) 
 1064              		.loc 1 239 2 view .LVU274
 239:Drivers/SoftI2C/Src/i2cSoft.c **** 	if ( !i2cSoft_WaitAck() ) 
 1065              		.loc 1 239 8 is_stmt 0 view .LVU275
 1066 0028 FFF7FEFF 		bl	i2cSoft_WaitAck
 1067              	.LVL110:
 239:Drivers/SoftI2C/Src/i2cSoft.c **** 	if ( !i2cSoft_WaitAck() ) 
 1068              		.loc 1 239 5 view .LVU276
 1069 002c E0B1     		cbz	r0, .L107
 244:Drivers/SoftI2C/Src/i2cSoft.c **** 	i2cSoft_Start();
 1070              		.loc 1 244 2 is_stmt 1 view .LVU277
 1071 002e FFF7FEFF 		bl	i2cSoft_Start
 1072              	.LVL111:
 245:Drivers/SoftI2C/Src/i2cSoft.c **** 	i2cSoft_PutByte( (TOSHIBA_I2C_ADDR << 1) + 1 );
 1073              		.loc 1 245 2 view .LVU278
 1074 0032 1F20     		movs	r0, #31
 1075 0034 FFF7FEFF 		bl	i2cSoft_PutByte
 1076              	.LVL112:
 246:Drivers/SoftI2C/Src/i2cSoft.c **** 		if ( !i2cSoft_WaitAck() ) 
 1077              		.loc 1 246 3 view .LVU279
 246:Drivers/SoftI2C/Src/i2cSoft.c **** 		if ( !i2cSoft_WaitAck() ) 
 1078              		.loc 1 246 9 is_stmt 0 view .LVU280
 1079 0038 FFF7FEFF 		bl	i2cSoft_WaitAck
 1080              	.LVL113:
 246:Drivers/SoftI2C/Src/i2cSoft.c **** 		if ( !i2cSoft_WaitAck() ) 
 1081              		.loc 1 246 6 view .LVU281
 1082 003c C0B1     		cbz	r0, .L108
 252:Drivers/SoftI2C/Src/i2cSoft.c **** 	ret  = i2cSoft_GetByte();
 1083              		.loc 1 252 2 is_stmt 1 view .LVU282
 252:Drivers/SoftI2C/Src/i2cSoft.c **** 	ret  = i2cSoft_GetByte();
 1084              		.loc 1 252 9 is_stmt 0 view .LVU283
 1085 003e FFF7FEFF 		bl	i2cSoft_GetByte
 1086              	.LVL114:
 254:Drivers/SoftI2C/Src/i2cSoft.c **** 	if ( !i2cSoft_WaitAck() ) 
 1087              		.loc 1 254 2 is_stmt 1 view .LVU284
 254:Drivers/SoftI2C/Src/i2cSoft.c **** 	if ( !i2cSoft_WaitAck() ) 
 1088              		.loc 1 254 8 is_stmt 0 view .LVU285
 1089 0042 FFF7FEFF 		bl	i2cSoft_WaitAck
 1090              	.LVL115:
 254:Drivers/SoftI2C/Src/i2cSoft.c **** 	if ( !i2cSoft_WaitAck() ) 
 1091              		.loc 1 254 5 view .LVU286
 1092 0046 B8B1     		cbz	r0, .L109
 259:Drivers/SoftI2C/Src/i2cSoft.c **** 	ret = ret | (i2cSoft_GetByte() << 8);
 1093              		.loc 1 259 2 is_stmt 1 view .LVU287
 259:Drivers/SoftI2C/Src/i2cSoft.c **** 	ret = ret | (i2cSoft_GetByte() << 8);
 1094              		.loc 1 259 15 is_stmt 0 view .LVU288
 1095 0048 FFF7FEFF 		bl	i2cSoft_GetByte
 1096              	.LVL116:
 260:Drivers/SoftI2C/Src/i2cSoft.c **** 	data += ret;
 1097              		.loc 1 260 2 is_stmt 1 view .LVU289
 261:Drivers/SoftI2C/Src/i2cSoft.c **** 	i2cSoft_NoAck();
 1098              		.loc 1 261 2 view .LVU290
 1099 004c FFF7FEFF 		bl	i2cSoft_NoAck
ARM GAS  C:\Users\madmax\AppData\Local\Temp\ccD50Og2.s 			page 40


 1100              	.LVL117:
 262:Drivers/SoftI2C/Src/i2cSoft.c **** 	i2cSoft_Stop();
 1101              		.loc 1 262 2 view .LVU291
 1102 0050 FFF7FEFF 		bl	i2cSoft_Stop
 1103              	.LVL118:
 264:Drivers/SoftI2C/Src/i2cSoft.c **** 		return I2C_RESULT_SUCCESS;
 1104              		.loc 1 264 3 view .LVU292
 264:Drivers/SoftI2C/Src/i2cSoft.c **** 		return I2C_RESULT_SUCCESS;
 1105              		.loc 1 264 10 is_stmt 0 view .LVU293
 1106 0054 0020     		movs	r0, #0
 1107 0056 14E0     		b	.L97
 1108              	.LVL119:
 1109              	.L105:
 229:Drivers/SoftI2C/Src/i2cSoft.c **** 		i2cSoft_Stop();
 1110              		.loc 1 229 3 is_stmt 1 view .LVU294
 1111 0058 FFF7FEFF 		bl	i2cSoft_Stop
 1112              	.LVL120:
 230:Drivers/SoftI2C/Src/i2cSoft.c **** 		return I2C_RESULT_ERROR;
 1113              		.loc 1 230 3 view .LVU295
 230:Drivers/SoftI2C/Src/i2cSoft.c **** 		return I2C_RESULT_ERROR;
 1114              		.loc 1 230 10 is_stmt 0 view .LVU296
 1115 005c FF20     		movs	r0, #255
 1116 005e 10E0     		b	.L97
 1117              	.L106:
 235:Drivers/SoftI2C/Src/i2cSoft.c **** 		i2cSoft_Stop();
 1118              		.loc 1 235 3 is_stmt 1 view .LVU297
 1119 0060 FFF7FEFF 		bl	i2cSoft_Stop
 1120              	.LVL121:
 236:Drivers/SoftI2C/Src/i2cSoft.c **** 		return I2C_RESULT_ERROR;
 1121              		.loc 1 236 3 view .LVU298
 236:Drivers/SoftI2C/Src/i2cSoft.c **** 		return I2C_RESULT_ERROR;
 1122              		.loc 1 236 10 is_stmt 0 view .LVU299
 1123 0064 FF20     		movs	r0, #255
 1124 0066 0CE0     		b	.L97
 1125              	.L107:
 241:Drivers/SoftI2C/Src/i2cSoft.c **** 		i2cSoft_Stop();
 1126              		.loc 1 241 3 is_stmt 1 view .LVU300
 1127 0068 FFF7FEFF 		bl	i2cSoft_Stop
 1128              	.LVL122:
 242:Drivers/SoftI2C/Src/i2cSoft.c **** 		return I2C_RESULT_ERROR;
 1129              		.loc 1 242 3 view .LVU301
 242:Drivers/SoftI2C/Src/i2cSoft.c **** 		return I2C_RESULT_ERROR;
 1130              		.loc 1 242 10 is_stmt 0 view .LVU302
 1131 006c FF20     		movs	r0, #255
 1132 006e 08E0     		b	.L97
 1133              	.L108:
 248:Drivers/SoftI2C/Src/i2cSoft.c **** 		i2cSoft_Stop();
 1134              		.loc 1 248 3 is_stmt 1 view .LVU303
 1135 0070 FFF7FEFF 		bl	i2cSoft_Stop
 1136              	.LVL123:
 249:Drivers/SoftI2C/Src/i2cSoft.c **** 		return I2C_RESULT_ERROR;
 1137              		.loc 1 249 3 view .LVU304
 249:Drivers/SoftI2C/Src/i2cSoft.c **** 		return I2C_RESULT_ERROR;
 1138              		.loc 1 249 10 is_stmt 0 view .LVU305
 1139 0074 FF20     		movs	r0, #255
 1140 0076 04E0     		b	.L97
 1141              	.LVL124:
ARM GAS  C:\Users\madmax\AppData\Local\Temp\ccD50Og2.s 			page 41


 1142              	.L109:
 256:Drivers/SoftI2C/Src/i2cSoft.c **** 		i2cSoft_Stop();
 1143              		.loc 1 256 3 is_stmt 1 view .LVU306
 1144 0078 FFF7FEFF 		bl	i2cSoft_Stop
 1145              	.LVL125:
 257:Drivers/SoftI2C/Src/i2cSoft.c **** 		return I2C_RESULT_ERROR;
 1146              		.loc 1 257 3 view .LVU307
 257:Drivers/SoftI2C/Src/i2cSoft.c **** 		return I2C_RESULT_ERROR;
 1147              		.loc 1 257 10 is_stmt 0 view .LVU308
 1148 007c FF20     		movs	r0, #255
 1149 007e 00E0     		b	.L97
 1150              	.LVL126:
 1151              	.L103:
 224:Drivers/SoftI2C/Src/i2cSoft.c **** 		return I2C_RESULT_ERROR;
 1152              		.loc 1 224 10 view .LVU309
 1153 0080 FF20     		movs	r0, #255
 1154              	.LVL127:
 1155              	.L97:
 265:Drivers/SoftI2C/Src/i2cSoft.c **** }
 1156              		.loc 1 265 1 view .LVU310
 1157 0082 10BD     		pop	{r4, pc}
 1158              		.cfi_endproc
 1159              	.LFE72:
 1161              		.section	.text.TC358870_i2c_Read32,"ax",%progbits
 1162              		.align	1
 1163              		.global	TC358870_i2c_Read32
 1164              		.syntax unified
 1165              		.thumb
 1166              		.thumb_func
 1167              		.fpu softvfp
 1169              	TC358870_i2c_Read32:
 1170              	.LVL128:
 1171              	.LFB73:
 267:Drivers/SoftI2C/Src/i2cSoft.c **** {
 1172              		.loc 1 267 1 is_stmt 1 view -0
 1173              		.cfi_startproc
 1174              		@ args = 0, pretend = 0, frame = 0
 1175              		@ frame_needed = 0, uses_anonymous_args = 0
 267:Drivers/SoftI2C/Src/i2cSoft.c **** {
 1176              		.loc 1 267 1 is_stmt 0 view .LVU312
 1177 0000 10B5     		push	{r4, lr}
 1178              	.LCFI16:
 1179              		.cfi_def_cfa_offset 8
 1180              		.cfi_offset 4, -8
 1181              		.cfi_offset 14, -4
 1182 0002 0446     		mov	r4, r0
 269:Drivers/SoftI2C/Src/i2cSoft.c **** uint32_t ret = 0;
 1183              		.loc 1 269 1 is_stmt 1 view .LVU313
 1184              	.LVL129:
 271:Drivers/SoftI2C/Src/i2cSoft.c **** 	if ( !i2cSoft_Start() )
 1185              		.loc 1 271 2 view .LVU314
 271:Drivers/SoftI2C/Src/i2cSoft.c **** 	if ( !i2cSoft_Start() )
 1186              		.loc 1 271 8 is_stmt 0 view .LVU315
 1187 0004 FFF7FEFF 		bl	i2cSoft_Start
 1188              	.LVL130:
 271:Drivers/SoftI2C/Src/i2cSoft.c **** 	if ( !i2cSoft_Start() )
 1189              		.loc 1 271 5 view .LVU316
ARM GAS  C:\Users\madmax\AppData\Local\Temp\ccD50Og2.s 			page 42


 1190 0008 0028     		cmp	r0, #0
 1191 000a 43D0     		beq	.L118
 274:Drivers/SoftI2C/Src/i2cSoft.c **** 	i2cSoft_PutByte( TOSHIBA_I2C_ADDR << 1 );
 1192              		.loc 1 274 2 is_stmt 1 view .LVU317
 1193 000c 1E20     		movs	r0, #30
 1194 000e FFF7FEFF 		bl	i2cSoft_PutByte
 1195              	.LVL131:
 275:Drivers/SoftI2C/Src/i2cSoft.c **** 	if ( !i2cSoft_WaitAck() ) 
 1196              		.loc 1 275 2 view .LVU318
 275:Drivers/SoftI2C/Src/i2cSoft.c **** 	if ( !i2cSoft_WaitAck() ) 
 1197              		.loc 1 275 8 is_stmt 0 view .LVU319
 1198 0012 FFF7FEFF 		bl	i2cSoft_WaitAck
 1199              	.LVL132:
 275:Drivers/SoftI2C/Src/i2cSoft.c **** 	if ( !i2cSoft_WaitAck() ) 
 1200              		.loc 1 275 5 view .LVU320
 1201 0016 28B3     		cbz	r0, .L120
 280:Drivers/SoftI2C/Src/i2cSoft.c **** 	i2cSoft_PutByte( addr >> 8 );
 1202              		.loc 1 280 2 is_stmt 1 view .LVU321
 1203 0018 200A     		lsrs	r0, r4, #8
 1204 001a FFF7FEFF 		bl	i2cSoft_PutByte
 1205              	.LVL133:
 281:Drivers/SoftI2C/Src/i2cSoft.c **** 	if ( !i2cSoft_WaitAck() ) 
 1206              		.loc 1 281 2 view .LVU322
 281:Drivers/SoftI2C/Src/i2cSoft.c **** 	if ( !i2cSoft_WaitAck() ) 
 1207              		.loc 1 281 8 is_stmt 0 view .LVU323
 1208 001e FFF7FEFF 		bl	i2cSoft_WaitAck
 1209              	.LVL134:
 281:Drivers/SoftI2C/Src/i2cSoft.c **** 	if ( !i2cSoft_WaitAck() ) 
 1210              		.loc 1 281 5 view .LVU324
 1211 0022 18B3     		cbz	r0, .L121
 286:Drivers/SoftI2C/Src/i2cSoft.c **** 	i2cSoft_PutByte( addr & 0xFF );
 1212              		.loc 1 286 2 is_stmt 1 view .LVU325
 1213 0024 E0B2     		uxtb	r0, r4
 1214 0026 FFF7FEFF 		bl	i2cSoft_PutByte
 1215              	.LVL135:
 287:Drivers/SoftI2C/Src/i2cSoft.c **** 	if ( !i2cSoft_WaitAck() ) 
 1216              		.loc 1 287 2 view .LVU326
 287:Drivers/SoftI2C/Src/i2cSoft.c **** 	if ( !i2cSoft_WaitAck() ) 
 1217              		.loc 1 287 8 is_stmt 0 view .LVU327
 1218 002a FFF7FEFF 		bl	i2cSoft_WaitAck
 1219              	.LVL136:
 287:Drivers/SoftI2C/Src/i2cSoft.c **** 	if ( !i2cSoft_WaitAck() ) 
 1220              		.loc 1 287 5 view .LVU328
 1221 002e 08B3     		cbz	r0, .L122
 292:Drivers/SoftI2C/Src/i2cSoft.c **** 	i2cSoft_Start();
 1222              		.loc 1 292 2 is_stmt 1 view .LVU329
 1223 0030 FFF7FEFF 		bl	i2cSoft_Start
 1224              	.LVL137:
 293:Drivers/SoftI2C/Src/i2cSoft.c **** 	i2cSoft_PutByte( (TOSHIBA_I2C_ADDR << 1) + 1 );
 1225              		.loc 1 293 2 view .LVU330
 1226 0034 1F20     		movs	r0, #31
 1227 0036 FFF7FEFF 		bl	i2cSoft_PutByte
 1228              	.LVL138:
 294:Drivers/SoftI2C/Src/i2cSoft.c **** 		if ( !i2cSoft_WaitAck() ) 
 1229              		.loc 1 294 3 view .LVU331
 294:Drivers/SoftI2C/Src/i2cSoft.c **** 		if ( !i2cSoft_WaitAck() ) 
 1230              		.loc 1 294 9 is_stmt 0 view .LVU332
ARM GAS  C:\Users\madmax\AppData\Local\Temp\ccD50Og2.s 			page 43


 1231 003a FFF7FEFF 		bl	i2cSoft_WaitAck
 1232              	.LVL139:
 294:Drivers/SoftI2C/Src/i2cSoft.c **** 		if ( !i2cSoft_WaitAck() ) 
 1233              		.loc 1 294 6 view .LVU333
 1234 003e E8B1     		cbz	r0, .L123
 301:Drivers/SoftI2C/Src/i2cSoft.c **** 	ret = i2cSoft_GetByte();
 1235              		.loc 1 301 2 is_stmt 1 view .LVU334
 301:Drivers/SoftI2C/Src/i2cSoft.c **** 	ret = i2cSoft_GetByte();
 1236              		.loc 1 301 8 is_stmt 0 view .LVU335
 1237 0040 FFF7FEFF 		bl	i2cSoft_GetByte
 1238              	.LVL140:
 302:Drivers/SoftI2C/Src/i2cSoft.c **** 	if ( !i2cSoft_WaitAck() ) 
 1239              		.loc 1 302 2 is_stmt 1 view .LVU336
 302:Drivers/SoftI2C/Src/i2cSoft.c **** 	if ( !i2cSoft_WaitAck() ) 
 1240              		.loc 1 302 8 is_stmt 0 view .LVU337
 1241 0044 FFF7FEFF 		bl	i2cSoft_WaitAck
 1242              	.LVL141:
 302:Drivers/SoftI2C/Src/i2cSoft.c **** 	if ( !i2cSoft_WaitAck() ) 
 1243              		.loc 1 302 5 view .LVU338
 1244 0048 E0B1     		cbz	r0, .L124
 307:Drivers/SoftI2C/Src/i2cSoft.c **** 		ret =  ret | (i2cSoft_GetByte() << 8);
 1245              		.loc 1 307 3 is_stmt 1 view .LVU339
 307:Drivers/SoftI2C/Src/i2cSoft.c **** 		ret =  ret | (i2cSoft_GetByte() << 8);
 1246              		.loc 1 307 17 is_stmt 0 view .LVU340
 1247 004a FFF7FEFF 		bl	i2cSoft_GetByte
 1248              	.LVL142:
 309:Drivers/SoftI2C/Src/i2cSoft.c **** 	if ( !i2cSoft_WaitAck() ) 
 1249              		.loc 1 309 2 is_stmt 1 view .LVU341
 309:Drivers/SoftI2C/Src/i2cSoft.c **** 	if ( !i2cSoft_WaitAck() ) 
 1250              		.loc 1 309 8 is_stmt 0 view .LVU342
 1251 004e FFF7FEFF 		bl	i2cSoft_WaitAck
 1252              	.LVL143:
 309:Drivers/SoftI2C/Src/i2cSoft.c **** 	if ( !i2cSoft_WaitAck() ) 
 1253              		.loc 1 309 5 view .LVU343
 1254 0052 D8B1     		cbz	r0, .L125
 314:Drivers/SoftI2C/Src/i2cSoft.c **** 	 ret = ret | (i2cSoft_GetByte() << 16);
 1255              		.loc 1 314 3 is_stmt 1 view .LVU344
 314:Drivers/SoftI2C/Src/i2cSoft.c **** 	 ret = ret | (i2cSoft_GetByte() << 16);
 1256              		.loc 1 314 16 is_stmt 0 view .LVU345
 1257 0054 FFF7FEFF 		bl	i2cSoft_GetByte
 1258              	.LVL144:
 315:Drivers/SoftI2C/Src/i2cSoft.c **** 	 data += ret;
 1259              		.loc 1 315 3 is_stmt 1 view .LVU346
 316:Drivers/SoftI2C/Src/i2cSoft.c **** 	i2cSoft_NoAck();
 1260              		.loc 1 316 2 view .LVU347
 1261 0058 FFF7FEFF 		bl	i2cSoft_NoAck
 1262              	.LVL145:
 317:Drivers/SoftI2C/Src/i2cSoft.c **** 	i2cSoft_Stop();
 1263              		.loc 1 317 2 view .LVU348
 1264 005c FFF7FEFF 		bl	i2cSoft_Stop
 1265              	.LVL146:
 319:Drivers/SoftI2C/Src/i2cSoft.c **** 		return I2C_RESULT_SUCCESS;
 1266              		.loc 1 319 3 view .LVU349
 319:Drivers/SoftI2C/Src/i2cSoft.c **** 		return I2C_RESULT_SUCCESS;
 1267              		.loc 1 319 10 is_stmt 0 view .LVU350
 1268 0060 0020     		movs	r0, #0
 1269 0062 18E0     		b	.L111
ARM GAS  C:\Users\madmax\AppData\Local\Temp\ccD50Og2.s 			page 44


 1270              	.LVL147:
 1271              	.L120:
 277:Drivers/SoftI2C/Src/i2cSoft.c **** 		i2cSoft_Stop();
 1272              		.loc 1 277 3 is_stmt 1 view .LVU351
 1273 0064 FFF7FEFF 		bl	i2cSoft_Stop
 1274              	.LVL148:
 278:Drivers/SoftI2C/Src/i2cSoft.c **** 		return I2C_RESULT_ERROR;
 1275              		.loc 1 278 3 view .LVU352
 278:Drivers/SoftI2C/Src/i2cSoft.c **** 		return I2C_RESULT_ERROR;
 1276              		.loc 1 278 10 is_stmt 0 view .LVU353
 1277 0068 FF20     		movs	r0, #255
 1278 006a 14E0     		b	.L111
 1279              	.L121:
 283:Drivers/SoftI2C/Src/i2cSoft.c **** 		i2cSoft_Stop();
 1280              		.loc 1 283 3 is_stmt 1 view .LVU354
 1281 006c FFF7FEFF 		bl	i2cSoft_Stop
 1282              	.LVL149:
 284:Drivers/SoftI2C/Src/i2cSoft.c **** 		return I2C_RESULT_ERROR;
 1283              		.loc 1 284 3 view .LVU355
 284:Drivers/SoftI2C/Src/i2cSoft.c **** 		return I2C_RESULT_ERROR;
 1284              		.loc 1 284 10 is_stmt 0 view .LVU356
 1285 0070 FF20     		movs	r0, #255
 1286 0072 10E0     		b	.L111
 1287              	.L122:
 289:Drivers/SoftI2C/Src/i2cSoft.c **** 		i2cSoft_Stop();
 1288              		.loc 1 289 3 is_stmt 1 view .LVU357
 1289 0074 FFF7FEFF 		bl	i2cSoft_Stop
 1290              	.LVL150:
 290:Drivers/SoftI2C/Src/i2cSoft.c **** 		return I2C_RESULT_ERROR;
 1291              		.loc 1 290 3 view .LVU358
 290:Drivers/SoftI2C/Src/i2cSoft.c **** 		return I2C_RESULT_ERROR;
 1292              		.loc 1 290 10 is_stmt 0 view .LVU359
 1293 0078 FF20     		movs	r0, #255
 1294 007a 0CE0     		b	.L111
 1295              	.L123:
 296:Drivers/SoftI2C/Src/i2cSoft.c **** 		i2cSoft_Stop();
 1296              		.loc 1 296 3 is_stmt 1 view .LVU360
 1297 007c FFF7FEFF 		bl	i2cSoft_Stop
 1298              	.LVL151:
 297:Drivers/SoftI2C/Src/i2cSoft.c **** 		return I2C_RESULT_ERROR;
 1299              		.loc 1 297 3 view .LVU361
 297:Drivers/SoftI2C/Src/i2cSoft.c **** 		return I2C_RESULT_ERROR;
 1300              		.loc 1 297 10 is_stmt 0 view .LVU362
 1301 0080 FF20     		movs	r0, #255
 1302 0082 08E0     		b	.L111
 1303              	.LVL152:
 1304              	.L124:
 304:Drivers/SoftI2C/Src/i2cSoft.c **** 		i2cSoft_Stop();
 1305              		.loc 1 304 3 is_stmt 1 view .LVU363
 1306 0084 FFF7FEFF 		bl	i2cSoft_Stop
 1307              	.LVL153:
 305:Drivers/SoftI2C/Src/i2cSoft.c **** 		return I2C_RESULT_ERROR;
 1308              		.loc 1 305 3 view .LVU364
 305:Drivers/SoftI2C/Src/i2cSoft.c **** 		return I2C_RESULT_ERROR;
 1309              		.loc 1 305 10 is_stmt 0 view .LVU365
 1310 0088 FF20     		movs	r0, #255
 1311 008a 04E0     		b	.L111
ARM GAS  C:\Users\madmax\AppData\Local\Temp\ccD50Og2.s 			page 45


 1312              	.L125:
 311:Drivers/SoftI2C/Src/i2cSoft.c **** 		i2cSoft_Stop();
 1313              		.loc 1 311 3 is_stmt 1 view .LVU366
 1314 008c FFF7FEFF 		bl	i2cSoft_Stop
 1315              	.LVL154:
 312:Drivers/SoftI2C/Src/i2cSoft.c **** 		return I2C_RESULT_ERROR;
 1316              		.loc 1 312 3 view .LVU367
 312:Drivers/SoftI2C/Src/i2cSoft.c **** 		return I2C_RESULT_ERROR;
 1317              		.loc 1 312 10 is_stmt 0 view .LVU368
 1318 0090 FF20     		movs	r0, #255
 1319 0092 00E0     		b	.L111
 1320              	.LVL155:
 1321              	.L118:
 272:Drivers/SoftI2C/Src/i2cSoft.c **** 		return I2C_RESULT_ERROR;
 1322              		.loc 1 272 10 view .LVU369
 1323 0094 FF20     		movs	r0, #255
 1324              	.LVL156:
 1325              	.L111:
 320:Drivers/SoftI2C/Src/i2cSoft.c **** }
 1326              		.loc 1 320 1 view .LVU370
 1327 0096 10BD     		pop	{r4, pc}
 1328              		.cfi_endproc
 1329              	.LFE73:
 1331              		.section	.text.i2cSoft_Mem_Read,"ax",%progbits
 1332              		.align	1
 1333              		.global	i2cSoft_Mem_Read
 1334              		.syntax unified
 1335              		.thumb
 1336              		.thumb_func
 1337              		.fpu softvfp
 1339              	i2cSoft_Mem_Read:
 1340              	.LVL157:
 1341              	.LFB74:
 322:Drivers/SoftI2C/Src/i2cSoft.c **** {
 1342              		.loc 1 322 1 is_stmt 1 view -0
 1343              		.cfi_startproc
 1344              		@ args = 0, pretend = 0, frame = 0
 1345              		@ frame_needed = 0, uses_anonymous_args = 0
 322:Drivers/SoftI2C/Src/i2cSoft.c **** {
 1346              		.loc 1 322 1 is_stmt 0 view .LVU372
 1347 0000 F8B5     		push	{r3, r4, r5, r6, r7, lr}
 1348              	.LCFI17:
 1349              		.cfi_def_cfa_offset 24
 1350              		.cfi_offset 3, -24
 1351              		.cfi_offset 4, -20
 1352              		.cfi_offset 5, -16
 1353              		.cfi_offset 6, -12
 1354              		.cfi_offset 7, -8
 1355              		.cfi_offset 14, -4
 1356 0002 0646     		mov	r6, r0
 1357 0004 0F46     		mov	r7, r1
 1358 0006 1546     		mov	r5, r2
 1359 0008 1C46     		mov	r4, r3
 323:Drivers/SoftI2C/Src/i2cSoft.c **** 	if ( !i2cSoft_Start() )
 1360              		.loc 1 323 2 is_stmt 1 view .LVU373
 323:Drivers/SoftI2C/Src/i2cSoft.c **** 	if ( !i2cSoft_Start() )
 1361              		.loc 1 323 8 is_stmt 0 view .LVU374
ARM GAS  C:\Users\madmax\AppData\Local\Temp\ccD50Og2.s 			page 46


 1362 000a FFF7FEFF 		bl	i2cSoft_Start
 1363              	.LVL158:
 323:Drivers/SoftI2C/Src/i2cSoft.c **** 	if ( !i2cSoft_Start() )
 1364              		.loc 1 323 5 view .LVU375
 1365 000e B0B3     		cbz	r0, .L134
 326:Drivers/SoftI2C/Src/i2cSoft.c **** 	i2cSoft_PutByte( chipAddress << 1 );
 1366              		.loc 1 326 2 is_stmt 1 view .LVU376
 1367 0010 7600     		lsls	r6, r6, #1
 1368 0012 F6B2     		uxtb	r6, r6
 1369 0014 3046     		mov	r0, r6
 1370 0016 FFF7FEFF 		bl	i2cSoft_PutByte
 1371              	.LVL159:
 327:Drivers/SoftI2C/Src/i2cSoft.c **** 	if ( !i2cSoft_WaitAck() ) 
 1372              		.loc 1 327 2 view .LVU377
 327:Drivers/SoftI2C/Src/i2cSoft.c **** 	if ( !i2cSoft_WaitAck() ) 
 1373              		.loc 1 327 8 is_stmt 0 view .LVU378
 1374 001a FFF7FEFF 		bl	i2cSoft_WaitAck
 1375              	.LVL160:
 327:Drivers/SoftI2C/Src/i2cSoft.c **** 	if ( !i2cSoft_WaitAck() ) 
 1376              		.loc 1 327 5 view .LVU379
 1377 001e C8B1     		cbz	r0, .L137
 332:Drivers/SoftI2C/Src/i2cSoft.c **** 	i2cSoft_PutByte( memaddr );
 1378              		.loc 1 332 2 is_stmt 1 view .LVU380
 1379 0020 3846     		mov	r0, r7
 1380 0022 FFF7FEFF 		bl	i2cSoft_PutByte
 1381              	.LVL161:
 333:Drivers/SoftI2C/Src/i2cSoft.c **** 	if ( !i2cSoft_WaitAck() ) 
 1382              		.loc 1 333 2 view .LVU381
 333:Drivers/SoftI2C/Src/i2cSoft.c **** 	if ( !i2cSoft_WaitAck() ) 
 1383              		.loc 1 333 8 is_stmt 0 view .LVU382
 1384 0026 FFF7FEFF 		bl	i2cSoft_WaitAck
 1385              	.LVL162:
 333:Drivers/SoftI2C/Src/i2cSoft.c **** 	if ( !i2cSoft_WaitAck() ) 
 1386              		.loc 1 333 5 view .LVU383
 1387 002a C0B1     		cbz	r0, .L138
 338:Drivers/SoftI2C/Src/i2cSoft.c **** 		if ( !i2cSoft_Start() )
 1388              		.loc 1 338 3 is_stmt 1 view .LVU384
 338:Drivers/SoftI2C/Src/i2cSoft.c **** 		if ( !i2cSoft_Start() )
 1389              		.loc 1 338 9 is_stmt 0 view .LVU385
 1390 002c FFF7FEFF 		bl	i2cSoft_Start
 1391              	.LVL163:
 338:Drivers/SoftI2C/Src/i2cSoft.c **** 		if ( !i2cSoft_Start() )
 1392              		.loc 1 338 6 view .LVU386
 1393 0030 40B3     		cbz	r0, .L135
 340:Drivers/SoftI2C/Src/i2cSoft.c **** 	i2cSoft_PutByte( (chipAddress << 1) + 1 );
 1394              		.loc 1 340 2 is_stmt 1 view .LVU387
 1395 0032 701C     		adds	r0, r6, #1
 1396 0034 C0B2     		uxtb	r0, r0
 1397 0036 FFF7FEFF 		bl	i2cSoft_PutByte
 1398              	.LVL164:
 341:Drivers/SoftI2C/Src/i2cSoft.c **** 		if ( !i2cSoft_WaitAck() ) 
 1399              		.loc 1 341 3 view .LVU388
 341:Drivers/SoftI2C/Src/i2cSoft.c **** 		if ( !i2cSoft_WaitAck() ) 
 1400              		.loc 1 341 9 is_stmt 0 view .LVU389
 1401 003a FFF7FEFF 		bl	i2cSoft_WaitAck
 1402              	.LVL165:
 341:Drivers/SoftI2C/Src/i2cSoft.c **** 		if ( !i2cSoft_WaitAck() ) 
ARM GAS  C:\Users\madmax\AppData\Local\Temp\ccD50Og2.s 			page 47


 1403              		.loc 1 341 6 view .LVU390
 1404 003e 98B1     		cbz	r0, .L139
 1405              	.L130:
 347:Drivers/SoftI2C/Src/i2cSoft.c **** 	while ( sizeOfBuffer != 0 ) {
 1406              		.loc 1 347 8 view .LVU391
 1407 0040 CCB1     		cbz	r4, .L132
 348:Drivers/SoftI2C/Src/i2cSoft.c **** 		*buffer = i2cSoft_GetByte();
 1408              		.loc 1 348 3 is_stmt 1 view .LVU392
 348:Drivers/SoftI2C/Src/i2cSoft.c **** 		*buffer = i2cSoft_GetByte();
 1409              		.loc 1 348 13 is_stmt 0 view .LVU393
 1410 0042 FFF7FEFF 		bl	i2cSoft_GetByte
 1411              	.LVL166:
 348:Drivers/SoftI2C/Src/i2cSoft.c **** 		*buffer = i2cSoft_GetByte();
 1412              		.loc 1 348 11 view .LVU394
 1413 0046 05F8010B 		strb	r0, [r5], #1
 1414              	.LVL167:
 350:Drivers/SoftI2C/Src/i2cSoft.c **** 		buffer++;
 1415              		.loc 1 350 3 is_stmt 1 view .LVU395
 351:Drivers/SoftI2C/Src/i2cSoft.c **** 		sizeOfBuffer--;
 1416              		.loc 1 351 3 view .LVU396
 352:Drivers/SoftI2C/Src/i2cSoft.c **** 		if ( sizeOfBuffer == 0 ) {
 1417              		.loc 1 352 3 view .LVU397
 352:Drivers/SoftI2C/Src/i2cSoft.c **** 		if ( sizeOfBuffer == 0 ) {
 1418              		.loc 1 352 6 is_stmt 0 view .LVU398
 1419 004a 013C     		subs	r4, r4, #1
 1420              	.LVL168:
 352:Drivers/SoftI2C/Src/i2cSoft.c **** 		if ( sizeOfBuffer == 0 ) {
 1421              		.loc 1 352 6 view .LVU399
 1422 004c 11D0     		beq	.L140
 357:Drivers/SoftI2C/Src/i2cSoft.c **** 			i2cSoft_Ack();
 1423              		.loc 1 357 4 is_stmt 1 view .LVU400
 1424 004e FFF7FEFF 		bl	i2cSoft_Ack
 1425              	.LVL169:
 1426 0052 F5E7     		b	.L130
 1427              	.L137:
 329:Drivers/SoftI2C/Src/i2cSoft.c **** 		i2cSoft_Stop();
 1428              		.loc 1 329 3 view .LVU401
 1429 0054 FFF7FEFF 		bl	i2cSoft_Stop
 1430              	.LVL170:
 330:Drivers/SoftI2C/Src/i2cSoft.c **** 		return I2C_RESULT_ERROR;
 1431              		.loc 1 330 3 view .LVU402
 330:Drivers/SoftI2C/Src/i2cSoft.c **** 		return I2C_RESULT_ERROR;
 1432              		.loc 1 330 10 is_stmt 0 view .LVU403
 1433 0058 4FF0FF30 		mov	r0, #-1
 1434 005c 0EE0     		b	.L126
 1435              	.L138:
 335:Drivers/SoftI2C/Src/i2cSoft.c **** 		i2cSoft_Stop();
 1436              		.loc 1 335 3 is_stmt 1 view .LVU404
 1437 005e FFF7FEFF 		bl	i2cSoft_Stop
 1438              	.LVL171:
 336:Drivers/SoftI2C/Src/i2cSoft.c **** 		return I2C_RESULT_ERROR;
 1439              		.loc 1 336 3 view .LVU405
 336:Drivers/SoftI2C/Src/i2cSoft.c **** 		return I2C_RESULT_ERROR;
 1440              		.loc 1 336 10 is_stmt 0 view .LVU406
 1441 0062 4FF0FF30 		mov	r0, #-1
 1442 0066 09E0     		b	.L126
 1443              	.L139:
ARM GAS  C:\Users\madmax\AppData\Local\Temp\ccD50Og2.s 			page 48


 343:Drivers/SoftI2C/Src/i2cSoft.c **** 		i2cSoft_Stop();
 1444              		.loc 1 343 3 is_stmt 1 view .LVU407
 1445 0068 FFF7FEFF 		bl	i2cSoft_Stop
 1446              	.LVL172:
 344:Drivers/SoftI2C/Src/i2cSoft.c **** 		return I2C_RESULT_ERROR;
 1447              		.loc 1 344 3 view .LVU408
 344:Drivers/SoftI2C/Src/i2cSoft.c **** 		return I2C_RESULT_ERROR;
 1448              		.loc 1 344 10 is_stmt 0 view .LVU409
 1449 006c 4FF0FF30 		mov	r0, #-1
 1450 0070 04E0     		b	.L126
 1451              	.L140:
 353:Drivers/SoftI2C/Src/i2cSoft.c **** 			i2cSoft_NoAck();
 1452              		.loc 1 353 4 is_stmt 1 view .LVU410
 1453 0072 FFF7FEFF 		bl	i2cSoft_NoAck
 1454              	.LVL173:
 354:Drivers/SoftI2C/Src/i2cSoft.c **** 			break;
 1455              		.loc 1 354 4 view .LVU411
 1456              	.L132:
 359:Drivers/SoftI2C/Src/i2cSoft.c **** 	i2cSoft_Stop();
 1457              		.loc 1 359 2 view .LVU412
 1458 0076 FFF7FEFF 		bl	i2cSoft_Stop
 1459              	.LVL174:
 360:Drivers/SoftI2C/Src/i2cSoft.c **** 	return I2C_RESULT_SUCCESS;
 1460              		.loc 1 360 2 view .LVU413
 360:Drivers/SoftI2C/Src/i2cSoft.c **** 	return I2C_RESULT_SUCCESS;
 1461              		.loc 1 360 9 is_stmt 0 view .LVU414
 1462 007a 0020     		movs	r0, #0
 1463              	.L126:
 362:Drivers/SoftI2C/Src/i2cSoft.c **** }
 1464              		.loc 1 362 1 view .LVU415
 1465 007c F8BD     		pop	{r3, r4, r5, r6, r7, pc}
 1466              	.LVL175:
 1467              	.L134:
 324:Drivers/SoftI2C/Src/i2cSoft.c **** 		return I2C_RESULT_ERROR;
 1468              		.loc 1 324 10 view .LVU416
 1469 007e 4FF0FF30 		mov	r0, #-1
 1470 0082 FBE7     		b	.L126
 1471              	.L135:
 339:Drivers/SoftI2C/Src/i2cSoft.c **** 		return I2C_RESULT_ERROR;
 1472              		.loc 1 339 10 view .LVU417
 1473 0084 4FF0FF30 		mov	r0, #-1
 1474 0088 F8E7     		b	.L126
 1475              		.cfi_endproc
 1476              	.LFE74:
 1478              		.section	.text.i2cSoft_ReadBuffer,"ax",%progbits
 1479              		.align	1
 1480              		.global	i2cSoft_ReadBuffer
 1481              		.syntax unified
 1482              		.thumb
 1483              		.thumb_func
 1484              		.fpu softvfp
 1486              	i2cSoft_ReadBuffer:
 1487              	.LVL176:
 1488              	.LFB75:
 377:Drivers/SoftI2C/Src/i2cSoft.c **** {
 1489              		.loc 1 377 1 is_stmt 1 view -0
 1490              		.cfi_startproc
ARM GAS  C:\Users\madmax\AppData\Local\Temp\ccD50Og2.s 			page 49


 1491              		@ args = 0, pretend = 0, frame = 0
 1492              		@ frame_needed = 0, uses_anonymous_args = 0
 377:Drivers/SoftI2C/Src/i2cSoft.c **** {
 1493              		.loc 1 377 1 is_stmt 0 view .LVU419
 1494 0000 70B5     		push	{r4, r5, r6, lr}
 1495              	.LCFI18:
 1496              		.cfi_def_cfa_offset 16
 1497              		.cfi_offset 4, -16
 1498              		.cfi_offset 5, -12
 1499              		.cfi_offset 6, -8
 1500              		.cfi_offset 14, -4
 1501 0002 0646     		mov	r6, r0
 1502 0004 0D46     		mov	r5, r1
 1503 0006 1446     		mov	r4, r2
 378:Drivers/SoftI2C/Src/i2cSoft.c **** 	if ( !i2cSoft_Start() )
 1504              		.loc 1 378 2 is_stmt 1 view .LVU420
 378:Drivers/SoftI2C/Src/i2cSoft.c **** 	if ( !i2cSoft_Start() )
 1505              		.loc 1 378 8 is_stmt 0 view .LVU421
 1506 0008 FFF7FEFF 		bl	i2cSoft_Start
 1507              	.LVL177:
 378:Drivers/SoftI2C/Src/i2cSoft.c **** 	if ( !i2cSoft_Start() )
 1508              		.loc 1 378 5 view .LVU422
 1509 000c E8B1     		cbz	r0, .L147
 380:Drivers/SoftI2C/Src/i2cSoft.c **** chipAddress = chipAddress << 1;
 1510              		.loc 1 380 1 is_stmt 1 view .LVU423
 380:Drivers/SoftI2C/Src/i2cSoft.c **** chipAddress = chipAddress << 1;
 1511              		.loc 1 380 13 is_stmt 0 view .LVU424
 1512 000e 7000     		lsls	r0, r6, #1
 1513 0010 C0B2     		uxtb	r0, r0
 1514              	.LVL178:
 381:Drivers/SoftI2C/Src/i2cSoft.c ****     i2cSoft_PutByte( chipAddress + 1 );
 1515              		.loc 1 381 5 is_stmt 1 view .LVU425
 1516 0012 0130     		adds	r0, r0, #1
 1517              	.LVL179:
 381:Drivers/SoftI2C/Src/i2cSoft.c ****     i2cSoft_PutByte( chipAddress + 1 );
 1518              		.loc 1 381 5 is_stmt 0 view .LVU426
 1519 0014 C0B2     		uxtb	r0, r0
 1520              	.LVL180:
 381:Drivers/SoftI2C/Src/i2cSoft.c ****     i2cSoft_PutByte( chipAddress + 1 );
 1521              		.loc 1 381 5 view .LVU427
 1522 0016 FFF7FEFF 		bl	i2cSoft_PutByte
 1523              	.LVL181:
 382:Drivers/SoftI2C/Src/i2cSoft.c ****     if ( !i2cSoft_WaitAck() ) {
 1524              		.loc 1 382 5 is_stmt 1 view .LVU428
 382:Drivers/SoftI2C/Src/i2cSoft.c ****     if ( !i2cSoft_WaitAck() ) {
 1525              		.loc 1 382 11 is_stmt 0 view .LVU429
 1526 001a FFF7FEFF 		bl	i2cSoft_WaitAck
 1527              	.LVL182:
 382:Drivers/SoftI2C/Src/i2cSoft.c ****     if ( !i2cSoft_WaitAck() ) {
 1528              		.loc 1 382 8 view .LVU430
 1529 001e 48B1     		cbz	r0, .L149
 1530              	.L143:
 387:Drivers/SoftI2C/Src/i2cSoft.c ****     while ( sizeOfBuffer != 0 ) {
 1531              		.loc 1 387 11 view .LVU431
 1532 0020 7CB1     		cbz	r4, .L145
 388:Drivers/SoftI2C/Src/i2cSoft.c ****         *buffer = i2cSoft_GetByte();
 1533              		.loc 1 388 9 is_stmt 1 view .LVU432
ARM GAS  C:\Users\madmax\AppData\Local\Temp\ccD50Og2.s 			page 50


 388:Drivers/SoftI2C/Src/i2cSoft.c ****         *buffer = i2cSoft_GetByte();
 1534              		.loc 1 388 19 is_stmt 0 view .LVU433
 1535 0022 FFF7FEFF 		bl	i2cSoft_GetByte
 1536              	.LVL183:
 388:Drivers/SoftI2C/Src/i2cSoft.c ****         *buffer = i2cSoft_GetByte();
 1537              		.loc 1 388 17 view .LVU434
 1538 0026 05F8010B 		strb	r0, [r5], #1
 1539              	.LVL184:
 390:Drivers/SoftI2C/Src/i2cSoft.c ****         buffer++;
 1540              		.loc 1 390 9 is_stmt 1 view .LVU435
 391:Drivers/SoftI2C/Src/i2cSoft.c ****         sizeOfBuffer--;
 1541              		.loc 1 391 9 view .LVU436
 392:Drivers/SoftI2C/Src/i2cSoft.c ****         if ( sizeOfBuffer == 0 ) {
 1542              		.loc 1 392 9 view .LVU437
 392:Drivers/SoftI2C/Src/i2cSoft.c ****         if ( sizeOfBuffer == 0 ) {
 1543              		.loc 1 392 12 is_stmt 0 view .LVU438
 1544 002a 013C     		subs	r4, r4, #1
 1545              	.LVL185:
 392:Drivers/SoftI2C/Src/i2cSoft.c ****         if ( sizeOfBuffer == 0 ) {
 1546              		.loc 1 392 12 view .LVU439
 1547 002c 07D0     		beq	.L150
 397:Drivers/SoftI2C/Src/i2cSoft.c ****             i2cSoft_Ack();
 1548              		.loc 1 397 13 is_stmt 1 view .LVU440
 1549 002e FFF7FEFF 		bl	i2cSoft_Ack
 1550              	.LVL186:
 1551 0032 F5E7     		b	.L143
 1552              	.L149:
 383:Drivers/SoftI2C/Src/i2cSoft.c ****         i2cSoft_Stop();
 1553              		.loc 1 383 9 view .LVU441
 1554 0034 FFF7FEFF 		bl	i2cSoft_Stop
 1555              	.LVL187:
 384:Drivers/SoftI2C/Src/i2cSoft.c ****         return I2C_RESULT_ERROR;
 1556              		.loc 1 384 9 view .LVU442
 384:Drivers/SoftI2C/Src/i2cSoft.c ****         return I2C_RESULT_ERROR;
 1557              		.loc 1 384 16 is_stmt 0 view .LVU443
 1558 0038 4FF0FF30 		mov	r0, #-1
 1559 003c 04E0     		b	.L141
 1560              	.L150:
 393:Drivers/SoftI2C/Src/i2cSoft.c ****             i2cSoft_NoAck();
 1561              		.loc 1 393 13 is_stmt 1 view .LVU444
 1562 003e FFF7FEFF 		bl	i2cSoft_NoAck
 1563              	.LVL188:
 394:Drivers/SoftI2C/Src/i2cSoft.c ****             break;
 1564              		.loc 1 394 13 view .LVU445
 1565              	.L145:
 399:Drivers/SoftI2C/Src/i2cSoft.c ****     i2cSoft_Stop();
 1566              		.loc 1 399 5 view .LVU446
 1567 0042 FFF7FEFF 		bl	i2cSoft_Stop
 1568              	.LVL189:
 400:Drivers/SoftI2C/Src/i2cSoft.c ****     return I2C_RESULT_SUCCESS;
 1569              		.loc 1 400 5 view .LVU447
 400:Drivers/SoftI2C/Src/i2cSoft.c ****     return I2C_RESULT_SUCCESS;
 1570              		.loc 1 400 12 is_stmt 0 view .LVU448
 1571 0046 0020     		movs	r0, #0
 1572              	.LVL190:
 1573              	.L141:
 401:Drivers/SoftI2C/Src/i2cSoft.c **** }
ARM GAS  C:\Users\madmax\AppData\Local\Temp\ccD50Og2.s 			page 51


 1574              		.loc 1 401 1 view .LVU449
 1575 0048 70BD     		pop	{r4, r5, r6, pc}
 1576              	.LVL191:
 1577              	.L147:
 379:Drivers/SoftI2C/Src/i2cSoft.c **** 		return I2C_RESULT_ERROR;
 1578              		.loc 1 379 10 view .LVU450
 1579 004a 4FF0FF30 		mov	r0, #-1
 1580 004e FBE7     		b	.L141
 1581              		.cfi_endproc
 1582              	.LFE75:
 1584              		.section	.text.i2cSoft_WriteBuffer,"ax",%progbits
 1585              		.align	1
 1586              		.global	i2cSoft_WriteBuffer
 1587              		.syntax unified
 1588              		.thumb
 1589              		.thumb_func
 1590              		.fpu softvfp
 1592              	i2cSoft_WriteBuffer:
 1593              	.LVL192:
 1594              	.LFB76:
 415:Drivers/SoftI2C/Src/i2cSoft.c **** {
 1595              		.loc 1 415 1 is_stmt 1 view -0
 1596              		.cfi_startproc
 1597              		@ args = 0, pretend = 0, frame = 0
 1598              		@ frame_needed = 0, uses_anonymous_args = 0
 415:Drivers/SoftI2C/Src/i2cSoft.c **** {
 1599              		.loc 1 415 1 is_stmt 0 view .LVU452
 1600 0000 70B5     		push	{r4, r5, r6, lr}
 1601              	.LCFI19:
 1602              		.cfi_def_cfa_offset 16
 1603              		.cfi_offset 4, -16
 1604              		.cfi_offset 5, -12
 1605              		.cfi_offset 6, -8
 1606              		.cfi_offset 14, -4
 1607 0002 0646     		mov	r6, r0
 1608 0004 0D46     		mov	r5, r1
 1609 0006 1446     		mov	r4, r2
 416:Drivers/SoftI2C/Src/i2cSoft.c **** 		if ( !i2cSoft_Start() )
 1610              		.loc 1 416 3 is_stmt 1 view .LVU453
 416:Drivers/SoftI2C/Src/i2cSoft.c **** 		if ( !i2cSoft_Start() )
 1611              		.loc 1 416 9 is_stmt 0 view .LVU454
 1612 0008 FFF7FEFF 		bl	i2cSoft_Start
 1613              	.LVL193:
 416:Drivers/SoftI2C/Src/i2cSoft.c **** 		if ( !i2cSoft_Start() )
 1614              		.loc 1 416 6 view .LVU455
 1615 000c 08B3     		cbz	r0, .L156
 419:Drivers/SoftI2C/Src/i2cSoft.c **** 	i2cSoft_PutByte( chipAddress << 1);
 1616              		.loc 1 419 2 is_stmt 1 view .LVU456
 1617 000e 7000     		lsls	r0, r6, #1
 1618 0010 00F0FE00 		and	r0, r0, #254
 1619 0014 FFF7FEFF 		bl	i2cSoft_PutByte
 1620              	.LVL194:
 420:Drivers/SoftI2C/Src/i2cSoft.c **** 	if ( !i2cSoft_WaitAck() ) {
 1621              		.loc 1 420 2 view .LVU457
 420:Drivers/SoftI2C/Src/i2cSoft.c **** 	if ( !i2cSoft_WaitAck() ) {
 1622              		.loc 1 420 8 is_stmt 0 view .LVU458
 1623 0018 FFF7FEFF 		bl	i2cSoft_WaitAck
ARM GAS  C:\Users\madmax\AppData\Local\Temp\ccD50Og2.s 			page 52


 1624              	.LVL195:
 420:Drivers/SoftI2C/Src/i2cSoft.c **** 	if ( !i2cSoft_WaitAck() ) {
 1625              		.loc 1 420 5 view .LVU459
 1626 001c 48B1     		cbz	r0, .L158
 1627              	.L153:
 425:Drivers/SoftI2C/Src/i2cSoft.c **** 	while ( sizeOfBuffer != 0 ) {
 1628              		.loc 1 425 8 view .LVU460
 1629 001e 94B1     		cbz	r4, .L159
 426:Drivers/SoftI2C/Src/i2cSoft.c **** 		i2cSoft_PutByte( *buffer );
 1630              		.loc 1 426 3 is_stmt 1 view .LVU461
 1631 0020 2878     		ldrb	r0, [r5]	@ zero_extendqisi2
 1632 0022 FFF7FEFF 		bl	i2cSoft_PutByte
 1633              	.LVL196:
 427:Drivers/SoftI2C/Src/i2cSoft.c **** 		if ( !i2cSoft_WaitAck() ) {
 1634              		.loc 1 427 3 view .LVU462
 427:Drivers/SoftI2C/Src/i2cSoft.c **** 		if ( !i2cSoft_WaitAck() ) {
 1635              		.loc 1 427 9 is_stmt 0 view .LVU463
 1636 0026 FFF7FEFF 		bl	i2cSoft_WaitAck
 1637              	.LVL197:
 427:Drivers/SoftI2C/Src/i2cSoft.c **** 		if ( !i2cSoft_WaitAck() ) {
 1638              		.loc 1 427 6 view .LVU464
 1639 002a 38B1     		cbz	r0, .L160
 432:Drivers/SoftI2C/Src/i2cSoft.c **** 		buffer++;
 1640              		.loc 1 432 3 is_stmt 1 view .LVU465
 432:Drivers/SoftI2C/Src/i2cSoft.c **** 		buffer++;
 1641              		.loc 1 432 9 is_stmt 0 view .LVU466
 1642 002c 0135     		adds	r5, r5, #1
 1643              	.LVL198:
 433:Drivers/SoftI2C/Src/i2cSoft.c **** 		sizeOfBuffer--;
 1644              		.loc 1 433 3 is_stmt 1 view .LVU467
 433:Drivers/SoftI2C/Src/i2cSoft.c **** 		sizeOfBuffer--;
 1645              		.loc 1 433 15 is_stmt 0 view .LVU468
 1646 002e 013C     		subs	r4, r4, #1
 1647              	.LVL199:
 433:Drivers/SoftI2C/Src/i2cSoft.c **** 		sizeOfBuffer--;
 1648              		.loc 1 433 15 view .LVU469
 1649 0030 F5E7     		b	.L153
 1650              	.L158:
 421:Drivers/SoftI2C/Src/i2cSoft.c **** 		i2cSoft_Stop();
 1651              		.loc 1 421 3 is_stmt 1 view .LVU470
 1652 0032 FFF7FEFF 		bl	i2cSoft_Stop
 1653              	.LVL200:
 422:Drivers/SoftI2C/Src/i2cSoft.c **** 		return I2C_RESULT_ERROR;
 1654              		.loc 1 422 3 view .LVU471
 422:Drivers/SoftI2C/Src/i2cSoft.c **** 		return I2C_RESULT_ERROR;
 1655              		.loc 1 422 10 is_stmt 0 view .LVU472
 1656 0036 4FF0FF30 		mov	r0, #-1
 1657 003a 09E0     		b	.L151
 1658              	.L160:
 428:Drivers/SoftI2C/Src/i2cSoft.c **** 			i2cSoft_Stop();
 1659              		.loc 1 428 4 is_stmt 1 view .LVU473
 1660 003c FFF7FEFF 		bl	i2cSoft_Stop
 1661              	.LVL201:
 429:Drivers/SoftI2C/Src/i2cSoft.c **** 			return I2C_RESULT_ERROR;
 1662              		.loc 1 429 4 view .LVU474
 429:Drivers/SoftI2C/Src/i2cSoft.c **** 			return I2C_RESULT_ERROR;
 1663              		.loc 1 429 11 is_stmt 0 view .LVU475
ARM GAS  C:\Users\madmax\AppData\Local\Temp\ccD50Og2.s 			page 53


 1664 0040 4FF0FF30 		mov	r0, #-1
 1665 0044 04E0     		b	.L151
 1666              	.L159:
 435:Drivers/SoftI2C/Src/i2cSoft.c **** 	i2cSoft_Stop();
 1667              		.loc 1 435 2 is_stmt 1 view .LVU476
 1668 0046 FFF7FEFF 		bl	i2cSoft_Stop
 1669              	.LVL202:
 436:Drivers/SoftI2C/Src/i2cSoft.c **** 	i2cSoft_Delay();
 1670              		.loc 1 436 2 view .LVU477
 1671 004a FFF7FEFF 		bl	i2cSoft_Delay
 1672              	.LVL203:
 437:Drivers/SoftI2C/Src/i2cSoft.c **** 	return I2C_RESULT_SUCCESS;
 1673              		.loc 1 437 2 view .LVU478
 437:Drivers/SoftI2C/Src/i2cSoft.c **** 	return I2C_RESULT_SUCCESS;
 1674              		.loc 1 437 9 is_stmt 0 view .LVU479
 1675 004e 0020     		movs	r0, #0
 1676              	.L151:
 462:Drivers/SoftI2C/Src/i2cSoft.c **** }
 1677              		.loc 1 462 1 view .LVU480
 1678 0050 70BD     		pop	{r4, r5, r6, pc}
 1679              	.LVL204:
 1680              	.L156:
 417:Drivers/SoftI2C/Src/i2cSoft.c **** 		return I2C_RESULT_ERROR;
 1681              		.loc 1 417 10 view .LVU481
 1682 0052 4FF0FF30 		mov	r0, #-1
 1683 0056 FBE7     		b	.L151
 1684              		.cfi_endproc
 1685              	.LFE76:
 1687              		.section	.text.i2cSoft_WriteByteOled,"ax",%progbits
 1688              		.align	1
 1689              		.global	i2cSoft_WriteByteOled
 1690              		.syntax unified
 1691              		.thumb
 1692              		.thumb_func
 1693              		.fpu softvfp
 1695              	i2cSoft_WriteByteOled:
 1696              	.LVL205:
 1697              	.LFB77:
 465:Drivers/SoftI2C/Src/i2cSoft.c **** {
 1698              		.loc 1 465 1 is_stmt 1 view -0
 1699              		.cfi_startproc
 1700              		@ args = 0, pretend = 0, frame = 0
 1701              		@ frame_needed = 0, uses_anonymous_args = 0
 465:Drivers/SoftI2C/Src/i2cSoft.c **** {
 1702              		.loc 1 465 1 is_stmt 0 view .LVU483
 1703 0000 38B5     		push	{r3, r4, r5, lr}
 1704              	.LCFI20:
 1705              		.cfi_def_cfa_offset 16
 1706              		.cfi_offset 3, -16
 1707              		.cfi_offset 4, -12
 1708              		.cfi_offset 5, -8
 1709              		.cfi_offset 14, -4
 1710 0002 0446     		mov	r4, r0
 1711 0004 0D46     		mov	r5, r1
 467:Drivers/SoftI2C/Src/i2cSoft.c **** 	if ( !i2cSoft_Start() )
 1712              		.loc 1 467 2 is_stmt 1 view .LVU484
 467:Drivers/SoftI2C/Src/i2cSoft.c **** 	if ( !i2cSoft_Start() )
ARM GAS  C:\Users\madmax\AppData\Local\Temp\ccD50Og2.s 			page 54


 1713              		.loc 1 467 8 is_stmt 0 view .LVU485
 1714 0006 FFF7FEFF 		bl	i2cSoft_Start
 1715              	.LVL206:
 467:Drivers/SoftI2C/Src/i2cSoft.c **** 	if ( !i2cSoft_Start() )
 1716              		.loc 1 467 5 view .LVU486
 1717 000a F8B1     		cbz	r0, .L165
 469:Drivers/SoftI2C/Src/i2cSoft.c **** i2cSoft_Delay();
 1718              		.loc 1 469 1 is_stmt 1 view .LVU487
 1719 000c FFF7FEFF 		bl	i2cSoft_Delay
 1720              	.LVL207:
 470:Drivers/SoftI2C/Src/i2cSoft.c **** i2cSoft_Delay();
 1721              		.loc 1 470 1 view .LVU488
 1722 0010 FFF7FEFF 		bl	i2cSoft_Delay
 1723              	.LVL208:
 471:Drivers/SoftI2C/Src/i2cSoft.c **** 	i2cSoft_PutByte( chipAddress << 1);
 1724              		.loc 1 471 2 view .LVU489
 1725 0014 6000     		lsls	r0, r4, #1
 1726 0016 00F0FE00 		and	r0, r0, #254
 1727 001a FFF7FEFF 		bl	i2cSoft_PutByte
 1728              	.LVL209:
 472:Drivers/SoftI2C/Src/i2cSoft.c **** 	if ( !i2cSoft_WaitAck() ) 
 1729              		.loc 1 472 2 view .LVU490
 472:Drivers/SoftI2C/Src/i2cSoft.c **** 	if ( !i2cSoft_WaitAck() ) 
 1730              		.loc 1 472 8 is_stmt 0 view .LVU491
 1731 001e FFF7FEFF 		bl	i2cSoft_WaitAck
 1732              	.LVL210:
 472:Drivers/SoftI2C/Src/i2cSoft.c **** 	if ( !i2cSoft_WaitAck() ) 
 1733              		.loc 1 472 5 view .LVU492
 1734 0022 48B1     		cbz	r0, .L167
 478:Drivers/SoftI2C/Src/i2cSoft.c **** 	i2cSoft_PutByte( data );
 1735              		.loc 1 478 2 is_stmt 1 view .LVU493
 1736 0024 2846     		mov	r0, r5
 1737 0026 FFF7FEFF 		bl	i2cSoft_PutByte
 1738              	.LVL211:
 479:Drivers/SoftI2C/Src/i2cSoft.c **** 		if ( !i2cSoft_WaitAck() ) 
 1739              		.loc 1 479 3 view .LVU494
 479:Drivers/SoftI2C/Src/i2cSoft.c **** 		if ( !i2cSoft_WaitAck() ) 
 1740              		.loc 1 479 9 is_stmt 0 view .LVU495
 1741 002a FFF7FEFF 		bl	i2cSoft_WaitAck
 1742              	.LVL212:
 479:Drivers/SoftI2C/Src/i2cSoft.c **** 		if ( !i2cSoft_WaitAck() ) 
 1743              		.loc 1 479 6 view .LVU496
 1744 002e 40B1     		cbz	r0, .L168
 487:Drivers/SoftI2C/Src/i2cSoft.c **** 	i2cSoft_Stop();
 1745              		.loc 1 487 2 is_stmt 1 view .LVU497
 1746 0030 FFF7FEFF 		bl	i2cSoft_Stop
 1747              	.LVL213:
 488:Drivers/SoftI2C/Src/i2cSoft.c **** 	return I2C_RESULT_SUCCESS;	
 1748              		.loc 1 488 2 view .LVU498
 488:Drivers/SoftI2C/Src/i2cSoft.c **** 	return I2C_RESULT_SUCCESS;	
 1749              		.loc 1 488 9 is_stmt 0 view .LVU499
 1750 0034 0020     		movs	r0, #0
 1751              	.L161:
 489:Drivers/SoftI2C/Src/i2cSoft.c **** }
 1752              		.loc 1 489 1 view .LVU500
 1753 0036 38BD     		pop	{r3, r4, r5, pc}
 1754              	.L167:
ARM GAS  C:\Users\madmax\AppData\Local\Temp\ccD50Og2.s 			page 55


 474:Drivers/SoftI2C/Src/i2cSoft.c **** 		i2cSoft_Stop();
 1755              		.loc 1 474 3 is_stmt 1 view .LVU501
 1756 0038 FFF7FEFF 		bl	i2cSoft_Stop
 1757              	.LVL214:
 475:Drivers/SoftI2C/Src/i2cSoft.c **** 		return I2C_RESULT_ERROR;
 1758              		.loc 1 475 3 view .LVU502
 475:Drivers/SoftI2C/Src/i2cSoft.c **** 		return I2C_RESULT_ERROR;
 1759              		.loc 1 475 10 is_stmt 0 view .LVU503
 1760 003c 4FF0FF30 		mov	r0, #-1
 1761 0040 F9E7     		b	.L161
 1762              	.L168:
 481:Drivers/SoftI2C/Src/i2cSoft.c **** 			i2cSoft_Stop();
 1763              		.loc 1 481 4 is_stmt 1 view .LVU504
 1764 0042 FFF7FEFF 		bl	i2cSoft_Stop
 1765              	.LVL215:
 482:Drivers/SoftI2C/Src/i2cSoft.c **** 			return I2C_RESULT_ERROR;
 1766              		.loc 1 482 4 view .LVU505
 482:Drivers/SoftI2C/Src/i2cSoft.c **** 			return I2C_RESULT_ERROR;
 1767              		.loc 1 482 11 is_stmt 0 view .LVU506
 1768 0046 4FF0FF30 		mov	r0, #-1
 1769 004a F4E7     		b	.L161
 1770              	.L165:
 468:Drivers/SoftI2C/Src/i2cSoft.c **** 		return I2C_RESULT_ERROR;
 1771              		.loc 1 468 10 view .LVU507
 1772 004c 4FF0FF30 		mov	r0, #-1
 1773 0050 F1E7     		b	.L161
 1774              		.cfi_endproc
 1775              	.LFE77:
 1777              		.section	.text.i2cSoft_DeviceReady,"ax",%progbits
 1778              		.align	1
 1779              		.global	i2cSoft_DeviceReady
 1780              		.syntax unified
 1781              		.thumb
 1782              		.thumb_func
 1783              		.fpu softvfp
 1785              	i2cSoft_DeviceReady:
 1786              	.LVL216:
 1787              	.LFB78:
 491:Drivers/SoftI2C/Src/i2cSoft.c **** {
 1788              		.loc 1 491 1 is_stmt 1 view -0
 1789              		.cfi_startproc
 1790              		@ args = 0, pretend = 0, frame = 0
 1791              		@ frame_needed = 0, uses_anonymous_args = 0
 491:Drivers/SoftI2C/Src/i2cSoft.c **** {
 1792              		.loc 1 491 1 is_stmt 0 view .LVU509
 1793 0000 38B5     		push	{r3, r4, r5, lr}
 1794              	.LCFI21:
 1795              		.cfi_def_cfa_offset 16
 1796              		.cfi_offset 3, -16
 1797              		.cfi_offset 4, -12
 1798              		.cfi_offset 5, -8
 1799              		.cfi_offset 14, -4
 1800 0002 0546     		mov	r5, r0
 492:Drivers/SoftI2C/Src/i2cSoft.c **** 	int x = 20;
 1801              		.loc 1 492 2 is_stmt 1 view .LVU510
 1802              	.LVL217:
 493:Drivers/SoftI2C/Src/i2cSoft.c **** 	while(x)
ARM GAS  C:\Users\madmax\AppData\Local\Temp\ccD50Og2.s 			page 56


 1803              		.loc 1 493 2 view .LVU511
 492:Drivers/SoftI2C/Src/i2cSoft.c **** 	int x = 20;
 1804              		.loc 1 492 6 is_stmt 0 view .LVU512
 1805 0004 1424     		movs	r4, #20
 1806              	.LVL218:
 1807              	.L170:
 493:Drivers/SoftI2C/Src/i2cSoft.c **** 	while(x)
 1808              		.loc 1 493 7 view .LVU513
 1809 0006 BCB1     		cbz	r4, .L169
 495:Drivers/SoftI2C/Src/i2cSoft.c **** 		i2cSoft_Delay();
 1810              		.loc 1 495 3 is_stmt 1 view .LVU514
 1811 0008 FFF7FEFF 		bl	i2cSoft_Delay
 1812              	.LVL219:
 496:Drivers/SoftI2C/Src/i2cSoft.c **** 			if ( !i2cSoft_Start() )
 1813              		.loc 1 496 4 view .LVU515
 496:Drivers/SoftI2C/Src/i2cSoft.c **** 			if ( !i2cSoft_Start() )
 1814              		.loc 1 496 10 is_stmt 0 view .LVU516
 1815 000c FFF7FEFF 		bl	i2cSoft_Start
 1816              	.LVL220:
 496:Drivers/SoftI2C/Src/i2cSoft.c **** 			if ( !i2cSoft_Start() )
 1817              		.loc 1 496 7 view .LVU517
 1818 0010 68B1     		cbz	r0, .L176
 502:Drivers/SoftI2C/Src/i2cSoft.c **** 			i2cSoft_Delay();
 1819              		.loc 1 502 4 is_stmt 1 view .LVU518
 1820 0012 FFF7FEFF 		bl	i2cSoft_Delay
 1821              	.LVL221:
 503:Drivers/SoftI2C/Src/i2cSoft.c **** 			i2cSoft_PutByte( chipAddress << 1 );
 1822              		.loc 1 503 4 view .LVU519
 1823 0016 6800     		lsls	r0, r5, #1
 1824 0018 00F0FE00 		and	r0, r0, #254
 1825 001c FFF7FEFF 		bl	i2cSoft_PutByte
 1826              	.LVL222:
 504:Drivers/SoftI2C/Src/i2cSoft.c **** 			if ( i2cSoft_WaitAck() ) 
 1827              		.loc 1 504 4 view .LVU520
 504:Drivers/SoftI2C/Src/i2cSoft.c **** 			if ( i2cSoft_WaitAck() ) 
 1828              		.loc 1 504 9 is_stmt 0 view .LVU521
 1829 0020 FFF7FEFF 		bl	i2cSoft_WaitAck
 1830              	.LVL223:
 504:Drivers/SoftI2C/Src/i2cSoft.c **** 			if ( i2cSoft_WaitAck() ) 
 1831              		.loc 1 504 7 view .LVU522
 1832 0024 50B9     		cbnz	r0, .L177
 509:Drivers/SoftI2C/Src/i2cSoft.c **** 		i2cSoft_Stop();
 1833              		.loc 1 509 3 is_stmt 1 view .LVU523
 1834 0026 FFF7FEFF 		bl	i2cSoft_Stop
 1835              	.LVL224:
 510:Drivers/SoftI2C/Src/i2cSoft.c **** 		x--;
 1836              		.loc 1 510 3 view .LVU524
 510:Drivers/SoftI2C/Src/i2cSoft.c **** 		x--;
 1837              		.loc 1 510 4 is_stmt 0 view .LVU525
 1838 002a 013C     		subs	r4, r4, #1
 1839              	.LVL225:
 510:Drivers/SoftI2C/Src/i2cSoft.c **** 		x--;
 1840              		.loc 1 510 4 view .LVU526
 1841 002c EBE7     		b	.L170
 1842              	.L176:
 498:Drivers/SoftI2C/Src/i2cSoft.c **** 					i2cSoft_Stop();
 1843              		.loc 1 498 6 is_stmt 1 view .LVU527
ARM GAS  C:\Users\madmax\AppData\Local\Temp\ccD50Og2.s 			page 57


 1844 002e FFF7FEFF 		bl	i2cSoft_Stop
 1845              	.LVL226:
 499:Drivers/SoftI2C/Src/i2cSoft.c **** 					i2cSoft_Delay();
 1846              		.loc 1 499 6 view .LVU528
 1847 0032 FFF7FEFF 		bl	i2cSoft_Delay
 1848              	.LVL227:
 500:Drivers/SoftI2C/Src/i2cSoft.c **** 					return 0;
 1849              		.loc 1 500 6 view .LVU529
 500:Drivers/SoftI2C/Src/i2cSoft.c **** 					return 0;
 1850              		.loc 1 500 13 is_stmt 0 view .LVU530
 1851 0036 0024     		movs	r4, #0
 1852              	.LVL228:
 1853              	.L169:
 513:Drivers/SoftI2C/Src/i2cSoft.c **** }
 1854              		.loc 1 513 1 view .LVU531
 1855 0038 2046     		mov	r0, r4
 1856 003a 38BD     		pop	{r3, r4, r5, pc}
 1857              	.LVL229:
 1858              	.L177:
 506:Drivers/SoftI2C/Src/i2cSoft.c **** 					i2cSoft_Stop();
 1859              		.loc 1 506 6 is_stmt 1 view .LVU532
 1860 003c FFF7FEFF 		bl	i2cSoft_Stop
 1861              	.LVL230:
 507:Drivers/SoftI2C/Src/i2cSoft.c **** 					return 1;
 1862              		.loc 1 507 6 view .LVU533
 507:Drivers/SoftI2C/Src/i2cSoft.c **** 					return 1;
 1863              		.loc 1 507 13 is_stmt 0 view .LVU534
 1864 0040 0124     		movs	r4, #1
 1865              	.LVL231:
 507:Drivers/SoftI2C/Src/i2cSoft.c **** 					return 1;
 1866              		.loc 1 507 13 view .LVU535
 1867 0042 F9E7     		b	.L169
 1868              		.cfi_endproc
 1869              	.LFE78:
 1871              		.section	.text.i2cSoft_DeviceExists,"ax",%progbits
 1872              		.align	1
 1873              		.global	i2cSoft_DeviceExists
 1874              		.syntax unified
 1875              		.thumb
 1876              		.thumb_func
 1877              		.fpu softvfp
 1879              	i2cSoft_DeviceExists:
 1880              	.LVL232:
 1881              	.LFB79:
 515:Drivers/SoftI2C/Src/i2cSoft.c **** {
 1882              		.loc 1 515 1 is_stmt 1 view -0
 1883              		.cfi_startproc
 1884              		@ args = 0, pretend = 0, frame = 0
 1885              		@ frame_needed = 0, uses_anonymous_args = 0
 515:Drivers/SoftI2C/Src/i2cSoft.c **** {
 1886              		.loc 1 515 1 is_stmt 0 view .LVU537
 1887 0000 10B5     		push	{r4, lr}
 1888              	.LCFI22:
 1889              		.cfi_def_cfa_offset 8
 1890              		.cfi_offset 4, -8
 1891              		.cfi_offset 14, -4
 1892 0002 0446     		mov	r4, r0
ARM GAS  C:\Users\madmax\AppData\Local\Temp\ccD50Og2.s 			page 58


 517:Drivers/SoftI2C/Src/i2cSoft.c **** 	i2cSoft_Delay();
 1893              		.loc 1 517 2 is_stmt 1 view .LVU538
 1894 0004 FFF7FEFF 		bl	i2cSoft_Delay
 1895              	.LVL233:
 518:Drivers/SoftI2C/Src/i2cSoft.c **** 		if ( !i2cSoft_Start() )	
 1896              		.loc 1 518 3 view .LVU539
 518:Drivers/SoftI2C/Src/i2cSoft.c **** 		if ( !i2cSoft_Start() )	
 1897              		.loc 1 518 9 is_stmt 0 view .LVU540
 1898 0008 FFF7FEFF 		bl	i2cSoft_Start
 1899              	.LVL234:
 518:Drivers/SoftI2C/Src/i2cSoft.c **** 		if ( !i2cSoft_Start() )	
 1900              		.loc 1 518 6 view .LVU541
 1901 000c 68B1     		cbz	r0, .L183
 524:Drivers/SoftI2C/Src/i2cSoft.c **** 		i2cSoft_Delay();
 1902              		.loc 1 524 3 is_stmt 1 view .LVU542
 1903 000e FFF7FEFF 		bl	i2cSoft_Delay
 1904              	.LVL235:
 525:Drivers/SoftI2C/Src/i2cSoft.c **** 		i2cSoft_PutByte( chipAddress << 1 );
 1905              		.loc 1 525 3 view .LVU543
 1906 0012 6000     		lsls	r0, r4, #1
 1907 0014 00F0FE00 		and	r0, r0, #254
 1908 0018 FFF7FEFF 		bl	i2cSoft_PutByte
 1909              	.LVL236:
 526:Drivers/SoftI2C/Src/i2cSoft.c **** 			if ( i2cSoft_WaitAck() ) 
 1910              		.loc 1 526 4 view .LVU544
 526:Drivers/SoftI2C/Src/i2cSoft.c **** 			if ( i2cSoft_WaitAck() ) 
 1911              		.loc 1 526 9 is_stmt 0 view .LVU545
 1912 001c FFF7FEFF 		bl	i2cSoft_WaitAck
 1913              	.LVL237:
 526:Drivers/SoftI2C/Src/i2cSoft.c **** 			if ( i2cSoft_WaitAck() ) 
 1914              		.loc 1 526 7 view .LVU546
 1915 0020 48B9     		cbnz	r0, .L184
 531:Drivers/SoftI2C/Src/i2cSoft.c **** 		i2cSoft_Stop();
 1916              		.loc 1 531 3 is_stmt 1 view .LVU547
 1917 0022 FFF7FEFF 		bl	i2cSoft_Stop
 1918              	.LVL238:
 532:Drivers/SoftI2C/Src/i2cSoft.c **** return 0;
 1919              		.loc 1 532 1 view .LVU548
 532:Drivers/SoftI2C/Src/i2cSoft.c **** return 0;
 1920              		.loc 1 532 8 is_stmt 0 view .LVU549
 1921 0026 0020     		movs	r0, #0
 1922              	.L178:
 533:Drivers/SoftI2C/Src/i2cSoft.c **** }
 1923              		.loc 1 533 1 view .LVU550
 1924 0028 10BD     		pop	{r4, pc}
 1925              	.L183:
 520:Drivers/SoftI2C/Src/i2cSoft.c **** 			i2cSoft_Stop();
 1926              		.loc 1 520 4 is_stmt 1 view .LVU551
 1927 002a FFF7FEFF 		bl	i2cSoft_Stop
 1928              	.LVL239:
 521:Drivers/SoftI2C/Src/i2cSoft.c **** 			i2cSoft_Delay();
 1929              		.loc 1 521 4 view .LVU552
 1930 002e FFF7FEFF 		bl	i2cSoft_Delay
 1931              	.LVL240:
 522:Drivers/SoftI2C/Src/i2cSoft.c **** 			return 0;
 1932              		.loc 1 522 4 view .LVU553
 522:Drivers/SoftI2C/Src/i2cSoft.c **** 			return 0;
ARM GAS  C:\Users\madmax\AppData\Local\Temp\ccD50Og2.s 			page 59


 1933              		.loc 1 522 11 is_stmt 0 view .LVU554
 1934 0032 0020     		movs	r0, #0
 1935 0034 F8E7     		b	.L178
 1936              	.L184:
 528:Drivers/SoftI2C/Src/i2cSoft.c **** 			i2cSoft_Stop();
 1937              		.loc 1 528 4 is_stmt 1 view .LVU555
 1938 0036 FFF7FEFF 		bl	i2cSoft_Stop
 1939              	.LVL241:
 529:Drivers/SoftI2C/Src/i2cSoft.c **** 			return 1;
 1940              		.loc 1 529 4 view .LVU556
 529:Drivers/SoftI2C/Src/i2cSoft.c **** 			return 1;
 1941              		.loc 1 529 11 is_stmt 0 view .LVU557
 1942 003a 0120     		movs	r0, #1
 1943 003c F4E7     		b	.L178
 1944              		.cfi_endproc
 1945              	.LFE79:
 1947              		.section	.text.i2cSoft_WriteOled,"ax",%progbits
 1948              		.align	1
 1949              		.global	i2cSoft_WriteOled
 1950              		.syntax unified
 1951              		.thumb
 1952              		.thumb_func
 1953              		.fpu softvfp
 1955              	i2cSoft_WriteOled:
 1956              	.LVL242:
 1957              	.LFB80:
 537:Drivers/SoftI2C/Src/i2cSoft.c **** {
 1958              		.loc 1 537 1 is_stmt 1 view -0
 1959              		.cfi_startproc
 1960              		@ args = 0, pretend = 0, frame = 0
 1961              		@ frame_needed = 0, uses_anonymous_args = 0
 537:Drivers/SoftI2C/Src/i2cSoft.c **** {
 1962              		.loc 1 537 1 is_stmt 0 view .LVU559
 1963 0000 70B5     		push	{r4, r5, r6, lr}
 1964              	.LCFI23:
 1965              		.cfi_def_cfa_offset 16
 1966              		.cfi_offset 4, -16
 1967              		.cfi_offset 5, -12
 1968              		.cfi_offset 6, -8
 1969              		.cfi_offset 14, -4
 1970 0002 0446     		mov	r4, r0
 1971 0004 0D46     		mov	r5, r1
 1972 0006 1646     		mov	r6, r2
 539:Drivers/SoftI2C/Src/i2cSoft.c **** 	if ( !i2cSoft_Start() )
 1973              		.loc 1 539 2 is_stmt 1 view .LVU560
 539:Drivers/SoftI2C/Src/i2cSoft.c **** 	if ( !i2cSoft_Start() )
 1974              		.loc 1 539 8 is_stmt 0 view .LVU561
 1975 0008 FFF7FEFF 		bl	i2cSoft_Start
 1976              	.LVL243:
 539:Drivers/SoftI2C/Src/i2cSoft.c **** 	if ( !i2cSoft_Start() )
 1977              		.loc 1 539 5 view .LVU562
 1978 000c 40B3     		cbz	r0, .L190
 541:Drivers/SoftI2C/Src/i2cSoft.c **** i2cSoft_Delay();
 1979              		.loc 1 541 1 is_stmt 1 view .LVU563
 1980 000e FFF7FEFF 		bl	i2cSoft_Delay
 1981              	.LVL244:
 543:Drivers/SoftI2C/Src/i2cSoft.c **** 	i2cSoft_PutByte( chipAddress << 1 );
ARM GAS  C:\Users\madmax\AppData\Local\Temp\ccD50Og2.s 			page 60


 1982              		.loc 1 543 2 view .LVU564
 1983 0012 6000     		lsls	r0, r4, #1
 1984 0014 00F0FE00 		and	r0, r0, #254
 1985 0018 FFF7FEFF 		bl	i2cSoft_PutByte
 1986              	.LVL245:
 544:Drivers/SoftI2C/Src/i2cSoft.c **** 	if ( !i2cSoft_WaitAck() ) 
 1987              		.loc 1 544 2 view .LVU565
 544:Drivers/SoftI2C/Src/i2cSoft.c **** 	if ( !i2cSoft_WaitAck() ) 
 1988              		.loc 1 544 8 is_stmt 0 view .LVU566
 1989 001c FFF7FEFF 		bl	i2cSoft_WaitAck
 1990              	.LVL246:
 544:Drivers/SoftI2C/Src/i2cSoft.c **** 	if ( !i2cSoft_WaitAck() ) 
 1991              		.loc 1 544 5 view .LVU567
 1992 0020 78B1     		cbz	r0, .L192
 549:Drivers/SoftI2C/Src/i2cSoft.c **** 		i2cSoft_PutByte( reg );
 1993              		.loc 1 549 3 is_stmt 1 view .LVU568
 1994 0022 2846     		mov	r0, r5
 1995 0024 FFF7FEFF 		bl	i2cSoft_PutByte
 1996              	.LVL247:
 550:Drivers/SoftI2C/Src/i2cSoft.c **** 		if ( !i2cSoft_WaitAck() ) 
 1997              		.loc 1 550 3 view .LVU569
 550:Drivers/SoftI2C/Src/i2cSoft.c **** 		if ( !i2cSoft_WaitAck() ) 
 1998              		.loc 1 550 9 is_stmt 0 view .LVU570
 1999 0028 FFF7FEFF 		bl	i2cSoft_WaitAck
 2000              	.LVL248:
 550:Drivers/SoftI2C/Src/i2cSoft.c **** 		if ( !i2cSoft_WaitAck() ) 
 2001              		.loc 1 550 6 view .LVU571
 2002 002c 70B1     		cbz	r0, .L193
 556:Drivers/SoftI2C/Src/i2cSoft.c **** 	i2cSoft_PutByte( data );
 2003              		.loc 1 556 2 is_stmt 1 view .LVU572
 2004 002e 3046     		mov	r0, r6
 2005 0030 FFF7FEFF 		bl	i2cSoft_PutByte
 2006              	.LVL249:
 557:Drivers/SoftI2C/Src/i2cSoft.c **** 		if ( !i2cSoft_WaitAck() ) 
 2007              		.loc 1 557 3 view .LVU573
 557:Drivers/SoftI2C/Src/i2cSoft.c **** 		if ( !i2cSoft_WaitAck() ) 
 2008              		.loc 1 557 9 is_stmt 0 view .LVU574
 2009 0034 FFF7FEFF 		bl	i2cSoft_WaitAck
 2010              	.LVL250:
 557:Drivers/SoftI2C/Src/i2cSoft.c **** 		if ( !i2cSoft_WaitAck() ) 
 2011              		.loc 1 557 6 view .LVU575
 2012 0038 68B1     		cbz	r0, .L194
 565:Drivers/SoftI2C/Src/i2cSoft.c **** 	i2cSoft_Stop();
 2013              		.loc 1 565 2 is_stmt 1 view .LVU576
 2014 003a FFF7FEFF 		bl	i2cSoft_Stop
 2015              	.LVL251:
 566:Drivers/SoftI2C/Src/i2cSoft.c **** 	return I2C_RESULT_SUCCESS;	
 2016              		.loc 1 566 2 view .LVU577
 566:Drivers/SoftI2C/Src/i2cSoft.c **** 	return I2C_RESULT_SUCCESS;	
 2017              		.loc 1 566 9 is_stmt 0 view .LVU578
 2018 003e 0020     		movs	r0, #0
 2019              	.L185:
 567:Drivers/SoftI2C/Src/i2cSoft.c **** }
 2020              		.loc 1 567 1 view .LVU579
 2021 0040 70BD     		pop	{r4, r5, r6, pc}
 2022              	.L192:
 546:Drivers/SoftI2C/Src/i2cSoft.c **** 		i2cSoft_Stop();
ARM GAS  C:\Users\madmax\AppData\Local\Temp\ccD50Og2.s 			page 61


 2023              		.loc 1 546 3 is_stmt 1 view .LVU580
 2024 0042 FFF7FEFF 		bl	i2cSoft_Stop
 2025              	.LVL252:
 547:Drivers/SoftI2C/Src/i2cSoft.c **** 		return I2C_RESULT_ERROR;
 2026              		.loc 1 547 3 view .LVU581
 547:Drivers/SoftI2C/Src/i2cSoft.c **** 		return I2C_RESULT_ERROR;
 2027              		.loc 1 547 10 is_stmt 0 view .LVU582
 2028 0046 4FF0FF30 		mov	r0, #-1
 2029 004a F9E7     		b	.L185
 2030              	.L193:
 552:Drivers/SoftI2C/Src/i2cSoft.c **** 			i2cSoft_Stop();
 2031              		.loc 1 552 4 is_stmt 1 view .LVU583
 2032 004c FFF7FEFF 		bl	i2cSoft_Stop
 2033              	.LVL253:
 553:Drivers/SoftI2C/Src/i2cSoft.c **** 			return I2C_RESULT_ERROR;
 2034              		.loc 1 553 4 view .LVU584
 553:Drivers/SoftI2C/Src/i2cSoft.c **** 			return I2C_RESULT_ERROR;
 2035              		.loc 1 553 11 is_stmt 0 view .LVU585
 2036 0050 4FF0FF30 		mov	r0, #-1
 2037 0054 F4E7     		b	.L185
 2038              	.L194:
 559:Drivers/SoftI2C/Src/i2cSoft.c **** 			i2cSoft_Stop();
 2039              		.loc 1 559 4 is_stmt 1 view .LVU586
 2040 0056 FFF7FEFF 		bl	i2cSoft_Stop
 2041              	.LVL254:
 560:Drivers/SoftI2C/Src/i2cSoft.c **** 			return I2C_RESULT_ERROR;
 2042              		.loc 1 560 4 view .LVU587
 560:Drivers/SoftI2C/Src/i2cSoft.c **** 			return I2C_RESULT_ERROR;
 2043              		.loc 1 560 11 is_stmt 0 view .LVU588
 2044 005a 4FF0FF30 		mov	r0, #-1
 2045 005e EFE7     		b	.L185
 2046              	.L190:
 540:Drivers/SoftI2C/Src/i2cSoft.c **** 		return I2C_RESULT_ERROR;
 2047              		.loc 1 540 10 view .LVU589
 2048 0060 4FF0FF30 		mov	r0, #-1
 2049 0064 ECE7     		b	.L185
 2050              		.cfi_endproc
 2051              	.LFE80:
 2053              		.section	.text.i2cSoft_WriteByte,"ax",%progbits
 2054              		.align	1
 2055              		.global	i2cSoft_WriteByte
 2056              		.syntax unified
 2057              		.thumb
 2058              		.thumb_func
 2059              		.fpu softvfp
 2061              	i2cSoft_WriteByte:
 2062              	.LVL255:
 2063              	.LFB81:
 569:Drivers/SoftI2C/Src/i2cSoft.c **** {
 2064              		.loc 1 569 1 is_stmt 1 view -0
 2065              		.cfi_startproc
 2066              		@ args = 0, pretend = 0, frame = 0
 2067              		@ frame_needed = 0, uses_anonymous_args = 0
 569:Drivers/SoftI2C/Src/i2cSoft.c **** {
 2068              		.loc 1 569 1 is_stmt 0 view .LVU591
 2069 0000 70B5     		push	{r4, r5, r6, lr}
 2070              	.LCFI24:
ARM GAS  C:\Users\madmax\AppData\Local\Temp\ccD50Og2.s 			page 62


 2071              		.cfi_def_cfa_offset 16
 2072              		.cfi_offset 4, -16
 2073              		.cfi_offset 5, -12
 2074              		.cfi_offset 6, -8
 2075              		.cfi_offset 14, -4
 2076 0002 0546     		mov	r5, r0
 2077 0004 0C46     		mov	r4, r1
 2078 0006 1646     		mov	r6, r2
 570:Drivers/SoftI2C/Src/i2cSoft.c **** 	if ( !i2cSoft_Start() )
 2079              		.loc 1 570 2 is_stmt 1 view .LVU592
 570:Drivers/SoftI2C/Src/i2cSoft.c **** 	if ( !i2cSoft_Start() )
 2080              		.loc 1 570 8 is_stmt 0 view .LVU593
 2081 0008 FFF7FEFF 		bl	i2cSoft_Start
 2082              	.LVL256:
 570:Drivers/SoftI2C/Src/i2cSoft.c **** 	if ( !i2cSoft_Start() )
 2083              		.loc 1 570 5 view .LVU594
 2084 000c 78B3     		cbz	r0, .L201
 573:Drivers/SoftI2C/Src/i2cSoft.c **** 	i2cSoft_PutByte( chipAddress );
 2085              		.loc 1 573 2 is_stmt 1 view .LVU595
 2086 000e 2846     		mov	r0, r5
 2087 0010 FFF7FEFF 		bl	i2cSoft_PutByte
 2088              	.LVL257:
 574:Drivers/SoftI2C/Src/i2cSoft.c **** 	if ( !i2cSoft_WaitAck() ) 
 2089              		.loc 1 574 2 view .LVU596
 574:Drivers/SoftI2C/Src/i2cSoft.c **** 	if ( !i2cSoft_WaitAck() ) 
 2090              		.loc 1 574 8 is_stmt 0 view .LVU597
 2091 0014 FFF7FEFF 		bl	i2cSoft_WaitAck
 2092              	.LVL258:
 574:Drivers/SoftI2C/Src/i2cSoft.c **** 	if ( !i2cSoft_WaitAck() ) 
 2093              		.loc 1 574 5 view .LVU598
 2094 0018 A8B1     		cbz	r0, .L203
 579:Drivers/SoftI2C/Src/i2cSoft.c **** 	i2cSoft_PutByte( addr >> 8 );
 2095              		.loc 1 579 2 is_stmt 1 view .LVU599
 2096 001a 200A     		lsrs	r0, r4, #8
 2097 001c FFF7FEFF 		bl	i2cSoft_PutByte
 2098              	.LVL259:
 580:Drivers/SoftI2C/Src/i2cSoft.c **** 		if ( !i2cSoft_WaitAck() ) 
 2099              		.loc 1 580 3 view .LVU600
 580:Drivers/SoftI2C/Src/i2cSoft.c **** 		if ( !i2cSoft_WaitAck() ) 
 2100              		.loc 1 580 9 is_stmt 0 view .LVU601
 2101 0020 FFF7FEFF 		bl	i2cSoft_WaitAck
 2102              	.LVL260:
 580:Drivers/SoftI2C/Src/i2cSoft.c **** 		if ( !i2cSoft_WaitAck() ) 
 2103              		.loc 1 580 6 view .LVU602
 2104 0024 A0B1     		cbz	r0, .L204
 585:Drivers/SoftI2C/Src/i2cSoft.c **** 		i2cSoft_PutByte( addr & 0xFF );
 2105              		.loc 1 585 3 is_stmt 1 view .LVU603
 2106 0026 E0B2     		uxtb	r0, r4
 2107 0028 FFF7FEFF 		bl	i2cSoft_PutByte
 2108              	.LVL261:
 586:Drivers/SoftI2C/Src/i2cSoft.c **** 		if ( !i2cSoft_WaitAck() ) 
 2109              		.loc 1 586 3 view .LVU604
 586:Drivers/SoftI2C/Src/i2cSoft.c **** 		if ( !i2cSoft_WaitAck() ) 
 2110              		.loc 1 586 9 is_stmt 0 view .LVU605
 2111 002c FFF7FEFF 		bl	i2cSoft_WaitAck
 2112              	.LVL262:
 586:Drivers/SoftI2C/Src/i2cSoft.c **** 		if ( !i2cSoft_WaitAck() ) 
ARM GAS  C:\Users\madmax\AppData\Local\Temp\ccD50Og2.s 			page 63


 2113              		.loc 1 586 6 view .LVU606
 2114 0030 98B1     		cbz	r0, .L205
 591:Drivers/SoftI2C/Src/i2cSoft.c **** 	i2cSoft_PutByte( data );
 2115              		.loc 1 591 2 is_stmt 1 view .LVU607
 2116 0032 3046     		mov	r0, r6
 2117 0034 FFF7FEFF 		bl	i2cSoft_PutByte
 2118              	.LVL263:
 592:Drivers/SoftI2C/Src/i2cSoft.c **** 		if ( !i2cSoft_WaitAck() ) 
 2119              		.loc 1 592 3 view .LVU608
 592:Drivers/SoftI2C/Src/i2cSoft.c **** 		if ( !i2cSoft_WaitAck() ) 
 2120              		.loc 1 592 9 is_stmt 0 view .LVU609
 2121 0038 FFF7FEFF 		bl	i2cSoft_WaitAck
 2122              	.LVL264:
 592:Drivers/SoftI2C/Src/i2cSoft.c **** 		if ( !i2cSoft_WaitAck() ) 
 2123              		.loc 1 592 6 view .LVU610
 2124 003c 90B1     		cbz	r0, .L206
 600:Drivers/SoftI2C/Src/i2cSoft.c **** 	i2cSoft_Stop();
 2125              		.loc 1 600 2 is_stmt 1 view .LVU611
 2126 003e FFF7FEFF 		bl	i2cSoft_Stop
 2127              	.LVL265:
 601:Drivers/SoftI2C/Src/i2cSoft.c **** 	return I2C_RESULT_SUCCESS;
 2128              		.loc 1 601 2 view .LVU612
 601:Drivers/SoftI2C/Src/i2cSoft.c **** 	return I2C_RESULT_SUCCESS;
 2129              		.loc 1 601 9 is_stmt 0 view .LVU613
 2130 0042 0020     		movs	r0, #0
 2131              	.L195:
 602:Drivers/SoftI2C/Src/i2cSoft.c **** }
 2132              		.loc 1 602 1 view .LVU614
 2133 0044 70BD     		pop	{r4, r5, r6, pc}
 2134              	.L203:
 576:Drivers/SoftI2C/Src/i2cSoft.c **** 		i2cSoft_Stop();
 2135              		.loc 1 576 3 is_stmt 1 view .LVU615
 2136 0046 FFF7FEFF 		bl	i2cSoft_Stop
 2137              	.LVL266:
 577:Drivers/SoftI2C/Src/i2cSoft.c **** 		return I2C_RESULT_ERROR;
 2138              		.loc 1 577 3 view .LVU616
 577:Drivers/SoftI2C/Src/i2cSoft.c **** 		return I2C_RESULT_ERROR;
 2139              		.loc 1 577 10 is_stmt 0 view .LVU617
 2140 004a 4FF0FF30 		mov	r0, #-1
 2141 004e F9E7     		b	.L195
 2142              	.L204:
 582:Drivers/SoftI2C/Src/i2cSoft.c **** 			i2cSoft_Stop();
 2143              		.loc 1 582 4 is_stmt 1 view .LVU618
 2144 0050 FFF7FEFF 		bl	i2cSoft_Stop
 2145              	.LVL267:
 583:Drivers/SoftI2C/Src/i2cSoft.c **** 			return I2C_RESULT_ERROR;
 2146              		.loc 1 583 4 view .LVU619
 583:Drivers/SoftI2C/Src/i2cSoft.c **** 			return I2C_RESULT_ERROR;
 2147              		.loc 1 583 11 is_stmt 0 view .LVU620
 2148 0054 4FF0FF30 		mov	r0, #-1
 2149 0058 F4E7     		b	.L195
 2150              	.L205:
 588:Drivers/SoftI2C/Src/i2cSoft.c **** 			i2cSoft_Stop();
 2151              		.loc 1 588 4 is_stmt 1 view .LVU621
 2152 005a FFF7FEFF 		bl	i2cSoft_Stop
 2153              	.LVL268:
 589:Drivers/SoftI2C/Src/i2cSoft.c **** 			return I2C_RESULT_ERROR;
ARM GAS  C:\Users\madmax\AppData\Local\Temp\ccD50Og2.s 			page 64


 2154              		.loc 1 589 4 view .LVU622
 589:Drivers/SoftI2C/Src/i2cSoft.c **** 			return I2C_RESULT_ERROR;
 2155              		.loc 1 589 11 is_stmt 0 view .LVU623
 2156 005e 4FF0FF30 		mov	r0, #-1
 2157 0062 EFE7     		b	.L195
 2158              	.L206:
 594:Drivers/SoftI2C/Src/i2cSoft.c **** 			i2cSoft_Stop();
 2159              		.loc 1 594 4 is_stmt 1 view .LVU624
 2160 0064 FFF7FEFF 		bl	i2cSoft_Stop
 2161              	.LVL269:
 595:Drivers/SoftI2C/Src/i2cSoft.c **** 			return I2C_RESULT_ERROR;
 2162              		.loc 1 595 4 view .LVU625
 595:Drivers/SoftI2C/Src/i2cSoft.c **** 			return I2C_RESULT_ERROR;
 2163              		.loc 1 595 11 is_stmt 0 view .LVU626
 2164 0068 4FF0FF30 		mov	r0, #-1
 2165 006c EAE7     		b	.L195
 2166              	.L201:
 571:Drivers/SoftI2C/Src/i2cSoft.c **** 		return I2C_RESULT_ERROR;
 2167              		.loc 1 571 10 view .LVU627
 2168 006e 4FF0FF30 		mov	r0, #-1
 2169 0072 E7E7     		b	.L195
 2170              		.cfi_endproc
 2171              	.LFE81:
 2173              		.section	.text.i2cSoft_WriteShort,"ax",%progbits
 2174              		.align	1
 2175              		.global	i2cSoft_WriteShort
 2176              		.syntax unified
 2177              		.thumb
 2178              		.thumb_func
 2179              		.fpu softvfp
 2181              	i2cSoft_WriteShort:
 2182              	.LVL270:
 2183              	.LFB82:
 604:Drivers/SoftI2C/Src/i2cSoft.c **** {
 2184              		.loc 1 604 1 is_stmt 1 view -0
 2185              		.cfi_startproc
 2186              		@ args = 0, pretend = 0, frame = 0
 2187              		@ frame_needed = 0, uses_anonymous_args = 0
 604:Drivers/SoftI2C/Src/i2cSoft.c **** {
 2188              		.loc 1 604 1 is_stmt 0 view .LVU629
 2189 0000 70B5     		push	{r4, r5, r6, lr}
 2190              	.LCFI25:
 2191              		.cfi_def_cfa_offset 16
 2192              		.cfi_offset 4, -16
 2193              		.cfi_offset 5, -12
 2194              		.cfi_offset 6, -8
 2195              		.cfi_offset 14, -4
 2196 0002 0646     		mov	r6, r0
 2197 0004 0C46     		mov	r4, r1
 2198 0006 1546     		mov	r5, r2
 605:Drivers/SoftI2C/Src/i2cSoft.c **** 	if ( !i2cSoft_Start() )
 2199              		.loc 1 605 2 is_stmt 1 view .LVU630
 605:Drivers/SoftI2C/Src/i2cSoft.c **** 	if ( !i2cSoft_Start() )
 2200              		.loc 1 605 8 is_stmt 0 view .LVU631
 2201 0008 FFF7FEFF 		bl	i2cSoft_Start
 2202              	.LVL271:
 605:Drivers/SoftI2C/Src/i2cSoft.c **** 	if ( !i2cSoft_Start() )
ARM GAS  C:\Users\madmax\AppData\Local\Temp\ccD50Og2.s 			page 65


 2203              		.loc 1 605 5 view .LVU632
 2204 000c D0B3     		cbz	r0, .L214
 608:Drivers/SoftI2C/Src/i2cSoft.c **** 	i2cSoft_PutByte( chipAddress );
 2205              		.loc 1 608 2 is_stmt 1 view .LVU633
 2206 000e 3046     		mov	r0, r6
 2207 0010 FFF7FEFF 		bl	i2cSoft_PutByte
 2208              	.LVL272:
 609:Drivers/SoftI2C/Src/i2cSoft.c **** 		if ( !i2cSoft_WaitAck() ) 
 2209              		.loc 1 609 3 view .LVU634
 609:Drivers/SoftI2C/Src/i2cSoft.c **** 		if ( !i2cSoft_WaitAck() ) 
 2210              		.loc 1 609 9 is_stmt 0 view .LVU635
 2211 0014 FFF7FEFF 		bl	i2cSoft_WaitAck
 2212              	.LVL273:
 609:Drivers/SoftI2C/Src/i2cSoft.c **** 		if ( !i2cSoft_WaitAck() ) 
 2213              		.loc 1 609 6 view .LVU636
 2214 0018 D8B1     		cbz	r0, .L216
 614:Drivers/SoftI2C/Src/i2cSoft.c **** 	i2cSoft_PutByte( addr >> 8 );
 2215              		.loc 1 614 2 is_stmt 1 view .LVU637
 2216 001a 200A     		lsrs	r0, r4, #8
 2217 001c FFF7FEFF 		bl	i2cSoft_PutByte
 2218              	.LVL274:
 615:Drivers/SoftI2C/Src/i2cSoft.c **** 		if ( !i2cSoft_WaitAck() ) 
 2219              		.loc 1 615 3 view .LVU638
 615:Drivers/SoftI2C/Src/i2cSoft.c **** 		if ( !i2cSoft_WaitAck() ) 
 2220              		.loc 1 615 9 is_stmt 0 view .LVU639
 2221 0020 FFF7FEFF 		bl	i2cSoft_WaitAck
 2222              	.LVL275:
 615:Drivers/SoftI2C/Src/i2cSoft.c **** 		if ( !i2cSoft_WaitAck() ) 
 2223              		.loc 1 615 6 view .LVU640
 2224 0024 D0B1     		cbz	r0, .L217
 620:Drivers/SoftI2C/Src/i2cSoft.c **** 	i2cSoft_PutByte( addr & 0xFF );
 2225              		.loc 1 620 2 is_stmt 1 view .LVU641
 2226 0026 E0B2     		uxtb	r0, r4
 2227 0028 FFF7FEFF 		bl	i2cSoft_PutByte
 2228              	.LVL276:
 621:Drivers/SoftI2C/Src/i2cSoft.c **** 		if ( !i2cSoft_WaitAck() ) 
 2229              		.loc 1 621 3 view .LVU642
 621:Drivers/SoftI2C/Src/i2cSoft.c **** 		if ( !i2cSoft_WaitAck() ) 
 2230              		.loc 1 621 9 is_stmt 0 view .LVU643
 2231 002c FFF7FEFF 		bl	i2cSoft_WaitAck
 2232              	.LVL277:
 621:Drivers/SoftI2C/Src/i2cSoft.c **** 		if ( !i2cSoft_WaitAck() ) 
 2233              		.loc 1 621 6 view .LVU644
 2234 0030 C8B1     		cbz	r0, .L218
 626:Drivers/SoftI2C/Src/i2cSoft.c **** 	i2cSoft_PutByte( (uint8_t)(data >> 8) );
 2235              		.loc 1 626 2 is_stmt 1 view .LVU645
 2236 0032 280A     		lsrs	r0, r5, #8
 2237 0034 FFF7FEFF 		bl	i2cSoft_PutByte
 2238              	.LVL278:
 627:Drivers/SoftI2C/Src/i2cSoft.c **** 		if ( !i2cSoft_WaitAck() ) 
 2239              		.loc 1 627 3 view .LVU646
 627:Drivers/SoftI2C/Src/i2cSoft.c **** 		if ( !i2cSoft_WaitAck() ) 
 2240              		.loc 1 627 9 is_stmt 0 view .LVU647
 2241 0038 FFF7FEFF 		bl	i2cSoft_WaitAck
 2242              	.LVL279:
 627:Drivers/SoftI2C/Src/i2cSoft.c **** 		if ( !i2cSoft_WaitAck() ) 
 2243              		.loc 1 627 6 view .LVU648
ARM GAS  C:\Users\madmax\AppData\Local\Temp\ccD50Og2.s 			page 66


 2244 003c C0B1     		cbz	r0, .L219
 632:Drivers/SoftI2C/Src/i2cSoft.c **** 	i2cSoft_PutByte( (uint8_t )(data & 0xFF)  );
 2245              		.loc 1 632 2 is_stmt 1 view .LVU649
 2246 003e E8B2     		uxtb	r0, r5
 2247 0040 FFF7FEFF 		bl	i2cSoft_PutByte
 2248              	.LVL280:
 633:Drivers/SoftI2C/Src/i2cSoft.c **** 		if ( !i2cSoft_WaitAck() ) 
 2249              		.loc 1 633 3 view .LVU650
 633:Drivers/SoftI2C/Src/i2cSoft.c **** 		if ( !i2cSoft_WaitAck() ) 
 2250              		.loc 1 633 9 is_stmt 0 view .LVU651
 2251 0044 FFF7FEFF 		bl	i2cSoft_WaitAck
 2252              	.LVL281:
 633:Drivers/SoftI2C/Src/i2cSoft.c **** 		if ( !i2cSoft_WaitAck() ) 
 2253              		.loc 1 633 6 view .LVU652
 2254 0048 B8B1     		cbz	r0, .L220
 641:Drivers/SoftI2C/Src/i2cSoft.c **** 	i2cSoft_Stop();
 2255              		.loc 1 641 2 is_stmt 1 view .LVU653
 2256 004a FFF7FEFF 		bl	i2cSoft_Stop
 2257              	.LVL282:
 642:Drivers/SoftI2C/Src/i2cSoft.c **** 	return I2C_RESULT_SUCCESS;
 2258              		.loc 1 642 2 view .LVU654
 642:Drivers/SoftI2C/Src/i2cSoft.c **** 	return I2C_RESULT_SUCCESS;
 2259              		.loc 1 642 9 is_stmt 0 view .LVU655
 2260 004e 0020     		movs	r0, #0
 2261              	.L207:
 643:Drivers/SoftI2C/Src/i2cSoft.c **** }
 2262              		.loc 1 643 1 view .LVU656
 2263 0050 70BD     		pop	{r4, r5, r6, pc}
 2264              	.L216:
 611:Drivers/SoftI2C/Src/i2cSoft.c **** 			i2cSoft_Stop();
 2265              		.loc 1 611 4 is_stmt 1 view .LVU657
 2266 0052 FFF7FEFF 		bl	i2cSoft_Stop
 2267              	.LVL283:
 612:Drivers/SoftI2C/Src/i2cSoft.c **** 			return I2C_RESULT_ERROR;
 2268              		.loc 1 612 4 view .LVU658
 612:Drivers/SoftI2C/Src/i2cSoft.c **** 			return I2C_RESULT_ERROR;
 2269              		.loc 1 612 11 is_stmt 0 view .LVU659
 2270 0056 4FF0FF30 		mov	r0, #-1
 2271 005a F9E7     		b	.L207
 2272              	.L217:
 617:Drivers/SoftI2C/Src/i2cSoft.c **** 			i2cSoft_Stop();
 2273              		.loc 1 617 4 is_stmt 1 view .LVU660
 2274 005c FFF7FEFF 		bl	i2cSoft_Stop
 2275              	.LVL284:
 618:Drivers/SoftI2C/Src/i2cSoft.c **** 			return I2C_RESULT_ERROR;
 2276              		.loc 1 618 4 view .LVU661
 618:Drivers/SoftI2C/Src/i2cSoft.c **** 			return I2C_RESULT_ERROR;
 2277              		.loc 1 618 11 is_stmt 0 view .LVU662
 2278 0060 4FF0FF30 		mov	r0, #-1
 2279 0064 F4E7     		b	.L207
 2280              	.L218:
 623:Drivers/SoftI2C/Src/i2cSoft.c **** 			i2cSoft_Stop();
 2281              		.loc 1 623 4 is_stmt 1 view .LVU663
 2282 0066 FFF7FEFF 		bl	i2cSoft_Stop
 2283              	.LVL285:
 624:Drivers/SoftI2C/Src/i2cSoft.c **** 			return I2C_RESULT_ERROR;
 2284              		.loc 1 624 4 view .LVU664
ARM GAS  C:\Users\madmax\AppData\Local\Temp\ccD50Og2.s 			page 67


 624:Drivers/SoftI2C/Src/i2cSoft.c **** 			return I2C_RESULT_ERROR;
 2285              		.loc 1 624 11 is_stmt 0 view .LVU665
 2286 006a 4FF0FF30 		mov	r0, #-1
 2287 006e EFE7     		b	.L207
 2288              	.L219:
 629:Drivers/SoftI2C/Src/i2cSoft.c **** 			i2cSoft_Stop();
 2289              		.loc 1 629 4 is_stmt 1 view .LVU666
 2290 0070 FFF7FEFF 		bl	i2cSoft_Stop
 2291              	.LVL286:
 630:Drivers/SoftI2C/Src/i2cSoft.c **** 			return I2C_RESULT_ERROR;
 2292              		.loc 1 630 4 view .LVU667
 630:Drivers/SoftI2C/Src/i2cSoft.c **** 			return I2C_RESULT_ERROR;
 2293              		.loc 1 630 11 is_stmt 0 view .LVU668
 2294 0074 4FF0FF30 		mov	r0, #-1
 2295 0078 EAE7     		b	.L207
 2296              	.L220:
 635:Drivers/SoftI2C/Src/i2cSoft.c **** 			i2cSoft_Stop();
 2297              		.loc 1 635 4 is_stmt 1 view .LVU669
 2298 007a FFF7FEFF 		bl	i2cSoft_Stop
 2299              	.LVL287:
 636:Drivers/SoftI2C/Src/i2cSoft.c **** 			return I2C_RESULT_ERROR;
 2300              		.loc 1 636 4 view .LVU670
 636:Drivers/SoftI2C/Src/i2cSoft.c **** 			return I2C_RESULT_ERROR;
 2301              		.loc 1 636 11 is_stmt 0 view .LVU671
 2302 007e 4FF0FF30 		mov	r0, #-1
 2303 0082 E5E7     		b	.L207
 2304              	.L214:
 606:Drivers/SoftI2C/Src/i2cSoft.c **** 		return I2C_RESULT_ERROR;
 2305              		.loc 1 606 10 view .LVU672
 2306 0084 4FF0FF30 		mov	r0, #-1
 2307 0088 E2E7     		b	.L207
 2308              		.cfi_endproc
 2309              	.LFE82:
 2311              		.section	.text.i2cSoft_WriteLong,"ax",%progbits
 2312              		.align	1
 2313              		.global	i2cSoft_WriteLong
 2314              		.syntax unified
 2315              		.thumb
 2316              		.thumb_func
 2317              		.fpu softvfp
 2319              	i2cSoft_WriteLong:
 2320              	.LVL288:
 2321              	.LFB83:
 647:Drivers/SoftI2C/Src/i2cSoft.c **** {
 2322              		.loc 1 647 1 is_stmt 1 view -0
 2323              		.cfi_startproc
 2324              		@ args = 0, pretend = 0, frame = 0
 2325              		@ frame_needed = 0, uses_anonymous_args = 0
 647:Drivers/SoftI2C/Src/i2cSoft.c **** {
 2326              		.loc 1 647 1 is_stmt 0 view .LVU674
 2327 0000 70B5     		push	{r4, r5, r6, lr}
 2328              	.LCFI26:
 2329              		.cfi_def_cfa_offset 16
 2330              		.cfi_offset 4, -16
 2331              		.cfi_offset 5, -12
 2332              		.cfi_offset 6, -8
 2333              		.cfi_offset 14, -4
ARM GAS  C:\Users\madmax\AppData\Local\Temp\ccD50Og2.s 			page 68


 2334 0002 0646     		mov	r6, r0
 2335 0004 0D46     		mov	r5, r1
 2336 0006 1446     		mov	r4, r2
 648:Drivers/SoftI2C/Src/i2cSoft.c **** 	if ( !i2cSoft_Start() )
 2337              		.loc 1 648 2 is_stmt 1 view .LVU675
 648:Drivers/SoftI2C/Src/i2cSoft.c **** 	if ( !i2cSoft_Start() )
 2338              		.loc 1 648 8 is_stmt 0 view .LVU676
 2339 0008 FFF7FEFF 		bl	i2cSoft_Start
 2340              	.LVL289:
 648:Drivers/SoftI2C/Src/i2cSoft.c **** 	if ( !i2cSoft_Start() )
 2341              		.loc 1 648 5 view .LVU677
 2342 000c 0028     		cmp	r0, #0
 2343 000e 52D0     		beq	.L230
 651:Drivers/SoftI2C/Src/i2cSoft.c **** 	i2cSoft_PutByte( chipAddress );
 2344              		.loc 1 651 2 is_stmt 1 view .LVU678
 2345 0010 3046     		mov	r0, r6
 2346 0012 FFF7FEFF 		bl	i2cSoft_PutByte
 2347              	.LVL290:
 652:Drivers/SoftI2C/Src/i2cSoft.c **** 	if ( !i2cSoft_WaitAck() ) 
 2348              		.loc 1 652 2 view .LVU679
 652:Drivers/SoftI2C/Src/i2cSoft.c **** 	if ( !i2cSoft_WaitAck() ) 
 2349              		.loc 1 652 8 is_stmt 0 view .LVU680
 2350 0016 FFF7FEFF 		bl	i2cSoft_WaitAck
 2351              	.LVL291:
 652:Drivers/SoftI2C/Src/i2cSoft.c **** 	if ( !i2cSoft_WaitAck() ) 
 2352              		.loc 1 652 5 view .LVU681
 2353 001a 48B3     		cbz	r0, .L232
 657:Drivers/SoftI2C/Src/i2cSoft.c **** 	i2cSoft_PutByte( addr >> 8 );
 2354              		.loc 1 657 2 is_stmt 1 view .LVU682
 2355 001c 280A     		lsrs	r0, r5, #8
 2356 001e FFF7FEFF 		bl	i2cSoft_PutByte
 2357              	.LVL292:
 658:Drivers/SoftI2C/Src/i2cSoft.c **** 	if ( !i2cSoft_WaitAck() ) 
 2358              		.loc 1 658 2 view .LVU683
 658:Drivers/SoftI2C/Src/i2cSoft.c **** 	if ( !i2cSoft_WaitAck() ) 
 2359              		.loc 1 658 8 is_stmt 0 view .LVU684
 2360 0022 FFF7FEFF 		bl	i2cSoft_WaitAck
 2361              	.LVL293:
 658:Drivers/SoftI2C/Src/i2cSoft.c **** 	if ( !i2cSoft_WaitAck() ) 
 2362              		.loc 1 658 5 view .LVU685
 2363 0026 40B3     		cbz	r0, .L233
 663:Drivers/SoftI2C/Src/i2cSoft.c **** 	i2cSoft_PutByte( addr & 0xFF );
 2364              		.loc 1 663 2 is_stmt 1 view .LVU686
 2365 0028 E8B2     		uxtb	r0, r5
 2366 002a FFF7FEFF 		bl	i2cSoft_PutByte
 2367              	.LVL294:
 664:Drivers/SoftI2C/Src/i2cSoft.c **** 	if ( !i2cSoft_WaitAck() ) 
 2368              		.loc 1 664 2 view .LVU687
 664:Drivers/SoftI2C/Src/i2cSoft.c **** 	if ( !i2cSoft_WaitAck() ) 
 2369              		.loc 1 664 8 is_stmt 0 view .LVU688
 2370 002e FFF7FEFF 		bl	i2cSoft_WaitAck
 2371              	.LVL295:
 664:Drivers/SoftI2C/Src/i2cSoft.c **** 	if ( !i2cSoft_WaitAck() ) 
 2372              		.loc 1 664 5 view .LVU689
 2373 0032 38B3     		cbz	r0, .L234
 669:Drivers/SoftI2C/Src/i2cSoft.c **** 	i2cSoft_PutByte( (uint8_t )(data >> 24) );
 2374              		.loc 1 669 2 is_stmt 1 view .LVU690
ARM GAS  C:\Users\madmax\AppData\Local\Temp\ccD50Og2.s 			page 69


 2375 0034 200E     		lsrs	r0, r4, #24
 2376 0036 FFF7FEFF 		bl	i2cSoft_PutByte
 2377              	.LVL296:
 670:Drivers/SoftI2C/Src/i2cSoft.c **** 	if ( !i2cSoft_WaitAck() ) 
 2378              		.loc 1 670 2 view .LVU691
 670:Drivers/SoftI2C/Src/i2cSoft.c **** 	if ( !i2cSoft_WaitAck() ) 
 2379              		.loc 1 670 8 is_stmt 0 view .LVU692
 2380 003a FFF7FEFF 		bl	i2cSoft_WaitAck
 2381              	.LVL297:
 670:Drivers/SoftI2C/Src/i2cSoft.c **** 	if ( !i2cSoft_WaitAck() ) 
 2382              		.loc 1 670 5 view .LVU693
 2383 003e 30B3     		cbz	r0, .L235
 675:Drivers/SoftI2C/Src/i2cSoft.c **** 	i2cSoft_PutByte( (uint8_t )(data >> 16) );
 2384              		.loc 1 675 2 is_stmt 1 view .LVU694
 2385 0040 C4F30740 		ubfx	r0, r4, #16, #8
 2386 0044 FFF7FEFF 		bl	i2cSoft_PutByte
 2387              	.LVL298:
 676:Drivers/SoftI2C/Src/i2cSoft.c **** 	if ( !i2cSoft_WaitAck() ) 
 2388              		.loc 1 676 2 view .LVU695
 676:Drivers/SoftI2C/Src/i2cSoft.c **** 	if ( !i2cSoft_WaitAck() ) 
 2389              		.loc 1 676 8 is_stmt 0 view .LVU696
 2390 0048 FFF7FEFF 		bl	i2cSoft_WaitAck
 2391              	.LVL299:
 676:Drivers/SoftI2C/Src/i2cSoft.c **** 	if ( !i2cSoft_WaitAck() ) 
 2392              		.loc 1 676 5 view .LVU697
 2393 004c 20B3     		cbz	r0, .L236
 681:Drivers/SoftI2C/Src/i2cSoft.c **** 	i2cSoft_PutByte( (uint8_t )(data >> 8) );
 2394              		.loc 1 681 2 is_stmt 1 view .LVU698
 2395 004e C4F30720 		ubfx	r0, r4, #8, #8
 2396 0052 FFF7FEFF 		bl	i2cSoft_PutByte
 2397              	.LVL300:
 682:Drivers/SoftI2C/Src/i2cSoft.c **** 	if ( !i2cSoft_WaitAck() ) 
 2398              		.loc 1 682 2 view .LVU699
 682:Drivers/SoftI2C/Src/i2cSoft.c **** 	if ( !i2cSoft_WaitAck() ) 
 2399              		.loc 1 682 8 is_stmt 0 view .LVU700
 2400 0056 FFF7FEFF 		bl	i2cSoft_WaitAck
 2401              	.LVL301:
 682:Drivers/SoftI2C/Src/i2cSoft.c **** 	if ( !i2cSoft_WaitAck() ) 
 2402              		.loc 1 682 5 view .LVU701
 2403 005a 10B3     		cbz	r0, .L237
 689:Drivers/SoftI2C/Src/i2cSoft.c **** 	i2cSoft_PutByte( (uint8_t ) data & 0xFF );
 2404              		.loc 1 689 2 is_stmt 1 view .LVU702
 2405 005c E0B2     		uxtb	r0, r4
 2406 005e FFF7FEFF 		bl	i2cSoft_PutByte
 2407              	.LVL302:
 690:Drivers/SoftI2C/Src/i2cSoft.c **** 	if ( !i2cSoft_WaitAck() ) 
 2408              		.loc 1 690 2 view .LVU703
 690:Drivers/SoftI2C/Src/i2cSoft.c **** 	if ( !i2cSoft_WaitAck() ) 
 2409              		.loc 1 690 8 is_stmt 0 view .LVU704
 2410 0062 FFF7FEFF 		bl	i2cSoft_WaitAck
 2411              	.LVL303:
 690:Drivers/SoftI2C/Src/i2cSoft.c **** 	if ( !i2cSoft_WaitAck() ) 
 2412              		.loc 1 690 5 view .LVU705
 2413 0066 08B3     		cbz	r0, .L238
 699:Drivers/SoftI2C/Src/i2cSoft.c **** 	i2cSoft_Stop();
 2414              		.loc 1 699 2 is_stmt 1 view .LVU706
 2415 0068 FFF7FEFF 		bl	i2cSoft_Stop
ARM GAS  C:\Users\madmax\AppData\Local\Temp\ccD50Og2.s 			page 70


 2416              	.LVL304:
 700:Drivers/SoftI2C/Src/i2cSoft.c **** 	return I2C_RESULT_SUCCESS;
 2417              		.loc 1 700 2 view .LVU707
 700:Drivers/SoftI2C/Src/i2cSoft.c **** 	return I2C_RESULT_SUCCESS;
 2418              		.loc 1 700 9 is_stmt 0 view .LVU708
 2419 006c 0020     		movs	r0, #0
 2420              	.L221:
 701:Drivers/SoftI2C/Src/i2cSoft.c **** }
 2421              		.loc 1 701 1 view .LVU709
 2422 006e 70BD     		pop	{r4, r5, r6, pc}
 2423              	.LVL305:
 2424              	.L232:
 654:Drivers/SoftI2C/Src/i2cSoft.c **** 		i2cSoft_Stop();
 2425              		.loc 1 654 3 is_stmt 1 view .LVU710
 2426 0070 FFF7FEFF 		bl	i2cSoft_Stop
 2427              	.LVL306:
 655:Drivers/SoftI2C/Src/i2cSoft.c **** 		return I2C_RESULT_ERROR;
 2428              		.loc 1 655 3 view .LVU711
 655:Drivers/SoftI2C/Src/i2cSoft.c **** 		return I2C_RESULT_ERROR;
 2429              		.loc 1 655 10 is_stmt 0 view .LVU712
 2430 0074 4FF0FF30 		mov	r0, #-1
 2431 0078 F9E7     		b	.L221
 2432              	.L233:
 660:Drivers/SoftI2C/Src/i2cSoft.c **** 		i2cSoft_Stop();
 2433              		.loc 1 660 3 is_stmt 1 view .LVU713
 2434 007a FFF7FEFF 		bl	i2cSoft_Stop
 2435              	.LVL307:
 661:Drivers/SoftI2C/Src/i2cSoft.c **** 		return I2C_RESULT_ERROR;
 2436              		.loc 1 661 3 view .LVU714
 661:Drivers/SoftI2C/Src/i2cSoft.c **** 		return I2C_RESULT_ERROR;
 2437              		.loc 1 661 10 is_stmt 0 view .LVU715
 2438 007e 4FF0FF30 		mov	r0, #-1
 2439 0082 F4E7     		b	.L221
 2440              	.L234:
 666:Drivers/SoftI2C/Src/i2cSoft.c **** 		i2cSoft_Stop();
 2441              		.loc 1 666 3 is_stmt 1 view .LVU716
 2442 0084 FFF7FEFF 		bl	i2cSoft_Stop
 2443              	.LVL308:
 667:Drivers/SoftI2C/Src/i2cSoft.c **** 		return I2C_RESULT_ERROR;
 2444              		.loc 1 667 3 view .LVU717
 667:Drivers/SoftI2C/Src/i2cSoft.c **** 		return I2C_RESULT_ERROR;
 2445              		.loc 1 667 10 is_stmt 0 view .LVU718
 2446 0088 4FF0FF30 		mov	r0, #-1
 2447 008c EFE7     		b	.L221
 2448              	.L235:
 672:Drivers/SoftI2C/Src/i2cSoft.c **** 		i2cSoft_Stop();
 2449              		.loc 1 672 3 is_stmt 1 view .LVU719
 2450 008e FFF7FEFF 		bl	i2cSoft_Stop
 2451              	.LVL309:
 673:Drivers/SoftI2C/Src/i2cSoft.c **** 		return I2C_RESULT_ERROR;
 2452              		.loc 1 673 3 view .LVU720
 673:Drivers/SoftI2C/Src/i2cSoft.c **** 		return I2C_RESULT_ERROR;
 2453              		.loc 1 673 10 is_stmt 0 view .LVU721
 2454 0092 4FF0FF30 		mov	r0, #-1
 2455 0096 EAE7     		b	.L221
 2456              	.L236:
 678:Drivers/SoftI2C/Src/i2cSoft.c **** 	i2cSoft_Stop();
ARM GAS  C:\Users\madmax\AppData\Local\Temp\ccD50Og2.s 			page 71


 2457              		.loc 1 678 2 is_stmt 1 view .LVU722
 2458 0098 FFF7FEFF 		bl	i2cSoft_Stop
 2459              	.LVL310:
 679:Drivers/SoftI2C/Src/i2cSoft.c **** 		return I2C_RESULT_ERROR;
 2460              		.loc 1 679 3 view .LVU723
 679:Drivers/SoftI2C/Src/i2cSoft.c **** 		return I2C_RESULT_ERROR;
 2461              		.loc 1 679 10 is_stmt 0 view .LVU724
 2462 009c 4FF0FF30 		mov	r0, #-1
 2463 00a0 E5E7     		b	.L221
 2464              	.L237:
 684:Drivers/SoftI2C/Src/i2cSoft.c **** 		i2cSoft_Stop();
 2465              		.loc 1 684 3 is_stmt 1 view .LVU725
 2466 00a2 FFF7FEFF 		bl	i2cSoft_Stop
 2467              	.LVL311:
 685:Drivers/SoftI2C/Src/i2cSoft.c **** 		return I2C_RESULT_ERROR;
 2468              		.loc 1 685 3 view .LVU726
 685:Drivers/SoftI2C/Src/i2cSoft.c **** 		return I2C_RESULT_ERROR;
 2469              		.loc 1 685 10 is_stmt 0 view .LVU727
 2470 00a6 4FF0FF30 		mov	r0, #-1
 2471 00aa E0E7     		b	.L221
 2472              	.L238:
 692:Drivers/SoftI2C/Src/i2cSoft.c **** 		i2cSoft_Stop();
 2473              		.loc 1 692 3 is_stmt 1 view .LVU728
 2474 00ac FFF7FEFF 		bl	i2cSoft_Stop
 2475              	.LVL312:
 693:Drivers/SoftI2C/Src/i2cSoft.c **** 		return I2C_RESULT_ERROR;
 2476              		.loc 1 693 3 view .LVU729
 693:Drivers/SoftI2C/Src/i2cSoft.c **** 		return I2C_RESULT_ERROR;
 2477              		.loc 1 693 10 is_stmt 0 view .LVU730
 2478 00b0 4FF0FF30 		mov	r0, #-1
 2479 00b4 DBE7     		b	.L221
 2480              	.L230:
 649:Drivers/SoftI2C/Src/i2cSoft.c **** 		return I2C_RESULT_ERROR;
 2481              		.loc 1 649 10 view .LVU731
 2482 00b6 4FF0FF30 		mov	r0, #-1
 2483 00ba D8E7     		b	.L221
 2484              		.cfi_endproc
 2485              	.LFE83:
 2487              		.section	.text.TC358870_i2c_Write,"ax",%progbits
 2488              		.align	1
 2489              		.global	TC358870_i2c_Write
 2490              		.syntax unified
 2491              		.thumb
 2492              		.thumb_func
 2493              		.fpu softvfp
 2495              	TC358870_i2c_Write:
 2496              	.LVL313:
 2497              	.LFB68:
  88:Drivers/SoftI2C/Src/i2cSoft.c **** {
 2498              		.loc 1 88 1 is_stmt 1 view -0
 2499              		.cfi_startproc
 2500              		@ args = 0, pretend = 0, frame = 0
 2501              		@ frame_needed = 0, uses_anonymous_args = 0
  88:Drivers/SoftI2C/Src/i2cSoft.c **** {
 2502              		.loc 1 88 1 is_stmt 0 view .LVU733
 2503 0000 08B5     		push	{r3, lr}
 2504              	.LCFI27:
ARM GAS  C:\Users\madmax\AppData\Local\Temp\ccD50Og2.s 			page 72


 2505              		.cfi_def_cfa_offset 8
 2506              		.cfi_offset 3, -8
 2507              		.cfi_offset 14, -4
  89:Drivers/SoftI2C/Src/i2cSoft.c **** 	uint8_t i2c_addr = TOSHIBA_I2C_ADDR << 1;
 2508              		.loc 1 89 2 is_stmt 1 view .LVU734
 2509              	.LVL314:
  90:Drivers/SoftI2C/Src/i2cSoft.c **** 	switch(len)
 2510              		.loc 1 90 2 view .LVU735
 2511 0002 022A     		cmp	r2, #2
 2512 0004 0BD0     		beq	.L240
 2513 0006 042A     		cmp	r2, #4
 2514 0008 0FD0     		beq	.L241
 2515 000a 012A     		cmp	r2, #1
 2516 000c 01D0     		beq	.L244
 2517              	.LVL315:
 2518              	.L242:
 107:Drivers/SoftI2C/Src/i2cSoft.c **** 	return 1;
 2519              		.loc 1 107 2 view .LVU736
 108:Drivers/SoftI2C/Src/i2cSoft.c **** }
 2520              		.loc 1 108 1 is_stmt 0 view .LVU737
 2521 000e 0120     		movs	r0, #1
 2522 0010 08BD     		pop	{r3, pc}
 2523              	.LVL316:
 2524              	.L244:
  95:Drivers/SoftI2C/Src/i2cSoft.c **** 		i2cSoft_WriteByte ( i2c_addr,  reg, val & 0xFF );
 2525              		.loc 1 95 3 is_stmt 1 view .LVU738
 2526 0012 CAB2     		uxtb	r2, r1
 2527              	.LVL317:
  95:Drivers/SoftI2C/Src/i2cSoft.c **** 		i2cSoft_WriteByte ( i2c_addr,  reg, val & 0xFF );
 2528              		.loc 1 95 3 is_stmt 0 view .LVU739
 2529 0014 0146     		mov	r1, r0
 2530              	.LVL318:
  95:Drivers/SoftI2C/Src/i2cSoft.c **** 		i2cSoft_WriteByte ( i2c_addr,  reg, val & 0xFF );
 2531              		.loc 1 95 3 view .LVU740
 2532 0016 1E20     		movs	r0, #30
 2533              	.LVL319:
  95:Drivers/SoftI2C/Src/i2cSoft.c **** 		i2cSoft_WriteByte ( i2c_addr,  reg, val & 0xFF );
 2534              		.loc 1 95 3 view .LVU741
 2535 0018 FFF7FEFF 		bl	i2cSoft_WriteByte
 2536              	.LVL320:
  96:Drivers/SoftI2C/Src/i2cSoft.c **** 		break;
 2537              		.loc 1 96 3 is_stmt 1 view .LVU742
 2538 001c F7E7     		b	.L242
 2539              	.LVL321:
 2540              	.L240:
  99:Drivers/SoftI2C/Src/i2cSoft.c **** 		i2cSoft_WriteShort ( i2c_addr,  reg, val & 0xFFFF );
 2541              		.loc 1 99 3 view .LVU743
 2542 001e 8AB2     		uxth	r2, r1
 2543              	.LVL322:
  99:Drivers/SoftI2C/Src/i2cSoft.c **** 		i2cSoft_WriteShort ( i2c_addr,  reg, val & 0xFFFF );
 2544              		.loc 1 99 3 is_stmt 0 view .LVU744
 2545 0020 0146     		mov	r1, r0
 2546              	.LVL323:
  99:Drivers/SoftI2C/Src/i2cSoft.c **** 		i2cSoft_WriteShort ( i2c_addr,  reg, val & 0xFFFF );
 2547              		.loc 1 99 3 view .LVU745
 2548 0022 1E20     		movs	r0, #30
 2549              	.LVL324:
ARM GAS  C:\Users\madmax\AppData\Local\Temp\ccD50Og2.s 			page 73


  99:Drivers/SoftI2C/Src/i2cSoft.c **** 		i2cSoft_WriteShort ( i2c_addr,  reg, val & 0xFFFF );
 2550              		.loc 1 99 3 view .LVU746
 2551 0024 FFF7FEFF 		bl	i2cSoft_WriteShort
 2552              	.LVL325:
 100:Drivers/SoftI2C/Src/i2cSoft.c **** 		break;
 2553              		.loc 1 100 3 is_stmt 1 view .LVU747
 2554 0028 F1E7     		b	.L242
 2555              	.LVL326:
 2556              	.L241:
 103:Drivers/SoftI2C/Src/i2cSoft.c **** 		i2cSoft_WriteLong ( i2c_addr,  reg, val );
 2557              		.loc 1 103 3 view .LVU748
 2558 002a 0A46     		mov	r2, r1
 2559              	.LVL327:
 103:Drivers/SoftI2C/Src/i2cSoft.c **** 		i2cSoft_WriteLong ( i2c_addr,  reg, val );
 2560              		.loc 1 103 3 is_stmt 0 view .LVU749
 2561 002c 0146     		mov	r1, r0
 2562              	.LVL328:
 103:Drivers/SoftI2C/Src/i2cSoft.c **** 		i2cSoft_WriteLong ( i2c_addr,  reg, val );
 2563              		.loc 1 103 3 view .LVU750
 2564 002e 1E20     		movs	r0, #30
 2565              	.LVL329:
 103:Drivers/SoftI2C/Src/i2cSoft.c **** 		i2cSoft_WriteLong ( i2c_addr,  reg, val );
 2566              		.loc 1 103 3 view .LVU751
 2567 0030 FFF7FEFF 		bl	i2cSoft_WriteLong
 2568              	.LVL330:
 104:Drivers/SoftI2C/Src/i2cSoft.c **** 		break;
 2569              		.loc 1 104 3 is_stmt 1 view .LVU752
 2570 0034 EBE7     		b	.L242
 2571              		.cfi_endproc
 2572              	.LFE68:
 2574              		.section	.text.TC358870_I2C_Write_BigIn,"ax",%progbits
 2575              		.align	1
 2576              		.global	TC358870_I2C_Write_BigIn
 2577              		.syntax unified
 2578              		.thumb
 2579              		.thumb_func
 2580              		.fpu softvfp
 2582              	TC358870_I2C_Write_BigIn:
 2583              	.LVL331:
 2584              	.LFB69:
 110:Drivers/SoftI2C/Src/i2cSoft.c **** {
 2585              		.loc 1 110 1 view -0
 2586              		.cfi_startproc
 2587              		@ args = 0, pretend = 0, frame = 0
 2588              		@ frame_needed = 0, uses_anonymous_args = 0
 110:Drivers/SoftI2C/Src/i2cSoft.c **** {
 2589              		.loc 1 110 1 is_stmt 0 view .LVU754
 2590 0000 08B5     		push	{r3, lr}
 2591              	.LCFI28:
 2592              		.cfi_def_cfa_offset 8
 2593              		.cfi_offset 3, -8
 2594              		.cfi_offset 14, -4
 112:Drivers/SoftI2C/Src/i2cSoft.c **** 	uint32_t bi_len = 0;
 2595              		.loc 1 112 2 is_stmt 1 view .LVU755
 2596              	.LVL332:
 113:Drivers/SoftI2C/Src/i2cSoft.c **** 	uint8_t i2c_addr = TOSHIBA_I2C_ADDR << 1;
 2597              		.loc 1 113 2 view .LVU756
ARM GAS  C:\Users\madmax\AppData\Local\Temp\ccD50Og2.s 			page 74


 114:Drivers/SoftI2C/Src/i2cSoft.c **** 	switch(len)
 2598              		.loc 1 114 2 view .LVU757
 2599 0002 022A     		cmp	r2, #2
 2600 0004 0BD0     		beq	.L246
 2601 0006 042A     		cmp	r2, #4
 2602 0008 13D0     		beq	.L247
 2603 000a 012A     		cmp	r2, #1
 2604 000c 01D0     		beq	.L250
 2605              	.LVL333:
 2606              	.L248:
 135:Drivers/SoftI2C/Src/i2cSoft.c **** 	return 1;
 2607              		.loc 1 135 2 view .LVU758
 136:Drivers/SoftI2C/Src/i2cSoft.c **** }
 2608              		.loc 1 136 1 is_stmt 0 view .LVU759
 2609 000e 0120     		movs	r0, #1
 2610 0010 08BD     		pop	{r3, pc}
 2611              	.LVL334:
 2612              	.L250:
 117:Drivers/SoftI2C/Src/i2cSoft.c **** 		i2cSoft_WriteByte ( i2c_addr,  reg, val & 0xFF );
 2613              		.loc 1 117 3 is_stmt 1 view .LVU760
 2614 0012 CAB2     		uxtb	r2, r1
 2615              	.LVL335:
 117:Drivers/SoftI2C/Src/i2cSoft.c **** 		i2cSoft_WriteByte ( i2c_addr,  reg, val & 0xFF );
 2616              		.loc 1 117 3 is_stmt 0 view .LVU761
 2617 0014 0146     		mov	r1, r0
 2618              	.LVL336:
 117:Drivers/SoftI2C/Src/i2cSoft.c **** 		i2cSoft_WriteByte ( i2c_addr,  reg, val & 0xFF );
 2619              		.loc 1 117 3 view .LVU762
 2620 0016 1E20     		movs	r0, #30
 2621              	.LVL337:
 117:Drivers/SoftI2C/Src/i2cSoft.c **** 		i2cSoft_WriteByte ( i2c_addr,  reg, val & 0xFF );
 2622              		.loc 1 117 3 view .LVU763
 2623 0018 FFF7FEFF 		bl	i2cSoft_WriteByte
 2624              	.LVL338:
 118:Drivers/SoftI2C/Src/i2cSoft.c **** 		break;
 2625              		.loc 1 118 3 is_stmt 1 view .LVU764
 2626 001c F7E7     		b	.L248
 2627              	.LVL339:
 2628              	.L246:
 121:Drivers/SoftI2C/Src/i2cSoft.c **** 				 bi_len = ((val >> 8)&0xff) | // move byte 1 to byte 0
 2629              		.loc 1 121 6 view .LVU765
 121:Drivers/SoftI2C/Src/i2cSoft.c **** 				 bi_len = ((val >> 8)&0xff) | // move byte 1 to byte 0
 2630              		.loc 1 121 26 is_stmt 0 view .LVU766
 2631 001e C1F30722 		ubfx	r2, r1, #8, #8
 2632              	.LVL340:
 122:Drivers/SoftI2C/Src/i2cSoft.c **** 				 		  ((val << 8)&0xff00); // move byte 0 to byte 1
 2633              		.loc 1 122 16 view .LVU767
 2634 0022 0902     		lsls	r1, r1, #8
 2635              	.LVL341:
 122:Drivers/SoftI2C/Src/i2cSoft.c **** 				 		  ((val << 8)&0xff00); // move byte 0 to byte 1
 2636              		.loc 1 122 21 view .LVU768
 2637 0024 89B2     		uxth	r1, r1
 2638              	.LVL342:
 123:Drivers/SoftI2C/Src/i2cSoft.c **** 		i2cSoft_WriteShort ( i2c_addr,  reg, bi_len & 0xFFFF );
 2639              		.loc 1 123 3 is_stmt 1 view .LVU769
 2640 0026 0A43     		orrs	r2, r2, r1
 2641              	.LVL343:
ARM GAS  C:\Users\madmax\AppData\Local\Temp\ccD50Og2.s 			page 75


 123:Drivers/SoftI2C/Src/i2cSoft.c **** 		i2cSoft_WriteShort ( i2c_addr,  reg, bi_len & 0xFFFF );
 2642              		.loc 1 123 3 is_stmt 0 view .LVU770
 2643 0028 0146     		mov	r1, r0
 2644 002a 1E20     		movs	r0, #30
 2645              	.LVL344:
 123:Drivers/SoftI2C/Src/i2cSoft.c **** 		i2cSoft_WriteShort ( i2c_addr,  reg, bi_len & 0xFFFF );
 2646              		.loc 1 123 3 view .LVU771
 2647 002c FFF7FEFF 		bl	i2cSoft_WriteShort
 2648              	.LVL345:
 124:Drivers/SoftI2C/Src/i2cSoft.c **** 		break;
 2649              		.loc 1 124 3 is_stmt 1 view .LVU772
 2650 0030 EDE7     		b	.L248
 2651              	.LVL346:
 2652              	.L247:
 127:Drivers/SoftI2C/Src/i2cSoft.c **** 				 bi_len = ((val>>24)&0xff) | // move byte 3 to byte 0
 2653              		.loc 1 127 6 view .LVU773
 128:Drivers/SoftI2C/Src/i2cSoft.c **** 				          ((val>>8)&0xff00) | // move byte 2 to byte 1
 2654              		.loc 1 128 20 is_stmt 0 view .LVU774
 2655 0032 0A0A     		lsrs	r2, r1, #8
 2656              	.LVL347:
 128:Drivers/SoftI2C/Src/i2cSoft.c **** 				          ((val>>8)&0xff00) | // move byte 2 to byte 1
 2657              		.loc 1 128 24 view .LVU775
 2658 0034 02F47F42 		and	r2, r2, #65280
 127:Drivers/SoftI2C/Src/i2cSoft.c **** 				 bi_len = ((val>>24)&0xff) | // move byte 3 to byte 0
 2659              		.loc 1 127 32 view .LVU776
 2660 0038 42EA1162 		orr	r2, r2, r1, lsr #24
 129:Drivers/SoftI2C/Src/i2cSoft.c **** 						  ((val<<8)&0xff0000) | // move byte 1 to byte 2
 2661              		.loc 1 129 14 view .LVU777
 2662 003c 0B02     		lsls	r3, r1, #8
 129:Drivers/SoftI2C/Src/i2cSoft.c **** 						  ((val<<8)&0xff0000) | // move byte 1 to byte 2
 2663              		.loc 1 129 18 view .LVU778
 2664 003e 03F47F03 		and	r3, r3, #16711680
 128:Drivers/SoftI2C/Src/i2cSoft.c **** 				          ((val>>8)&0xff00) | // move byte 2 to byte 1
 2665              		.loc 1 128 33 view .LVU779
 2666 0042 1A43     		orrs	r2, r2, r3
 2667              	.LVL348:
 131:Drivers/SoftI2C/Src/i2cSoft.c **** 		i2cSoft_WriteLong ( i2c_addr,  reg, bi_len );
 2668              		.loc 1 131 3 is_stmt 1 view .LVU780
 2669 0044 42EA0162 		orr	r2, r2, r1, lsl #24
 2670              	.LVL349:
 131:Drivers/SoftI2C/Src/i2cSoft.c **** 		i2cSoft_WriteLong ( i2c_addr,  reg, bi_len );
 2671              		.loc 1 131 3 is_stmt 0 view .LVU781
 2672 0048 0146     		mov	r1, r0
 2673              	.LVL350:
 131:Drivers/SoftI2C/Src/i2cSoft.c **** 		i2cSoft_WriteLong ( i2c_addr,  reg, bi_len );
 2674              		.loc 1 131 3 view .LVU782
 2675 004a 1E20     		movs	r0, #30
 2676              	.LVL351:
 131:Drivers/SoftI2C/Src/i2cSoft.c **** 		i2cSoft_WriteLong ( i2c_addr,  reg, bi_len );
 2677              		.loc 1 131 3 view .LVU783
 2678 004c FFF7FEFF 		bl	i2cSoft_WriteLong
 2679              	.LVL352:
 132:Drivers/SoftI2C/Src/i2cSoft.c **** 		break;
 2680              		.loc 1 132 3 is_stmt 1 view .LVU784
 2681 0050 DDE7     		b	.L248
 2682              		.cfi_endproc
 2683              	.LFE69:
ARM GAS  C:\Users\madmax\AppData\Local\Temp\ccD50Og2.s 			page 76


 2685              		.text
 2686              	.Letext0:
 2687              		.file 2 "d:\\stm32\\gnu mcu eclipse\\arm embedded gcc\\8.2.1-1.4-20190214-0604\\arm-none-eabi\\inc
 2688              		.file 3 "d:\\stm32\\gnu mcu eclipse\\arm embedded gcc\\8.2.1-1.4-20190214-0604\\arm-none-eabi\\inc
 2689              		.file 4 "Drivers/CMSIS/Include/core_cm3.h"
 2690              		.file 5 "Drivers/CMSIS/Device/ST/STM32F1xx/Include/system_stm32f1xx.h"
 2691              		.file 6 "Drivers/CMSIS/Device/ST/STM32F1xx/Include/stm32f103xb.h"
 2692              		.file 7 "Drivers/STM32F1xx_HAL_Driver/Inc/stm32f1xx_hal.h"
 2693              		.file 8 "Inc/hardware.h"
ARM GAS  C:\Users\madmax\AppData\Local\Temp\ccD50Og2.s 			page 77

